
kernel/kernel:     file format elf64-littleriscv


Disassembly of section .text:

0000000080000000 <_entry>:
    80000000:	00009117          	auipc	sp,0x9
    80000004:	a5010113          	add	sp,sp,-1456 # 80008a50 <stack0>
    80000008:	6505                	lui	a0,0x1
    8000000a:	f14025f3          	csrr	a1,mhartid
    8000000e:	0585                	add	a1,a1,1
    80000010:	02b50533          	mul	a0,a0,a1
    80000014:	912a                	add	sp,sp,a0
    80000016:	076000ef          	jal	8000008c <start>

000000008000001a <spin>:
    8000001a:	a001                	j	8000001a <spin>

000000008000001c <timerinit>:
// at timervec in kernelvec.S,
// which turns them into software interrupts for
// devintr() in trap.c.
void
timerinit()
{
    8000001c:	1141                	add	sp,sp,-16
    8000001e:	e422                	sd	s0,8(sp)
    80000020:	0800                	add	s0,sp,16
// which hart (core) is this?
static inline uint64
r_mhartid()
{
  uint64 x;
  asm volatile("csrr %0, mhartid" : "=r" (x) );
    80000022:	f14027f3          	csrr	a5,mhartid
  // each CPU has a separate source of timer interrupts.
  int id = r_mhartid();
    80000026:	0007859b          	sext.w	a1,a5

  // ask the CLINT for a timer interrupt.
  int interval = 1000000; // cycles; about 1/10th second in qemu.
  *(uint64*)CLINT_MTIMECMP(id) = *(uint64*)CLINT_MTIME + interval;
    8000002a:	0037979b          	sllw	a5,a5,0x3
    8000002e:	02004737          	lui	a4,0x2004
    80000032:	97ba                	add	a5,a5,a4
    80000034:	0200c737          	lui	a4,0x200c
    80000038:	ff873703          	ld	a4,-8(a4) # 200bff8 <_entry-0x7dff4008>
    8000003c:	000f4637          	lui	a2,0xf4
    80000040:	24060613          	add	a2,a2,576 # f4240 <_entry-0x7ff0bdc0>
    80000044:	9732                	add	a4,a4,a2
    80000046:	e398                	sd	a4,0(a5)

  // prepare information in scratch[] for timervec.
  // scratch[0..2] : space for timervec to save registers.
  // scratch[3] : address of CLINT MTIMECMP register.
  // scratch[4] : desired interval (in cycles) between timer interrupts.
  uint64 *scratch = &timer_scratch[id][0];
    80000048:	00259693          	sll	a3,a1,0x2
    8000004c:	96ae                	add	a3,a3,a1
    8000004e:	068e                	sll	a3,a3,0x3
    80000050:	00009717          	auipc	a4,0x9
    80000054:	8c070713          	add	a4,a4,-1856 # 80008910 <timer_scratch>
    80000058:	9736                	add	a4,a4,a3
  scratch[3] = CLINT_MTIMECMP(id);
    8000005a:	ef1c                	sd	a5,24(a4)
  scratch[4] = interval;
    8000005c:	f310                	sd	a2,32(a4)
}

static inline void 
w_mscratch(uint64 x)
{
  asm volatile("csrw mscratch, %0" : : "r" (x));
    8000005e:	34071073          	csrw	mscratch,a4
  asm volatile("csrw mtvec, %0" : : "r" (x));
    80000062:	00006797          	auipc	a5,0x6
    80000066:	1fe78793          	add	a5,a5,510 # 80006260 <timervec>
    8000006a:	30579073          	csrw	mtvec,a5
  asm volatile("csrr %0, mstatus" : "=r" (x) );
    8000006e:	300027f3          	csrr	a5,mstatus

  // set the machine-mode trap handler.
  w_mtvec((uint64)timervec);

  // enable machine-mode interrupts.
  w_mstatus(r_mstatus() | MSTATUS_MIE);
    80000072:	0087e793          	or	a5,a5,8
  asm volatile("csrw mstatus, %0" : : "r" (x));
    80000076:	30079073          	csrw	mstatus,a5
  asm volatile("csrr %0, mie" : "=r" (x) );
    8000007a:	304027f3          	csrr	a5,mie

  // enable machine-mode timer interrupts.
  w_mie(r_mie() | MIE_MTIE);
    8000007e:	0807e793          	or	a5,a5,128
  asm volatile("csrw mie, %0" : : "r" (x));
    80000082:	30479073          	csrw	mie,a5
}
    80000086:	6422                	ld	s0,8(sp)
    80000088:	0141                	add	sp,sp,16
    8000008a:	8082                	ret

000000008000008c <start>:
{
    8000008c:	1141                	add	sp,sp,-16
    8000008e:	e406                	sd	ra,8(sp)
    80000090:	e022                	sd	s0,0(sp)
    80000092:	0800                	add	s0,sp,16
  asm volatile("csrr %0, mstatus" : "=r" (x) );
    80000094:	300027f3          	csrr	a5,mstatus
  x &= ~MSTATUS_MPP_MASK;
    80000098:	7779                	lui	a4,0xffffe
    8000009a:	7ff70713          	add	a4,a4,2047 # ffffffffffffe7ff <end+0xffffffff7ffbc067>
    8000009e:	8ff9                	and	a5,a5,a4
  x |= MSTATUS_MPP_S;
    800000a0:	6705                	lui	a4,0x1
    800000a2:	80070713          	add	a4,a4,-2048 # 800 <_entry-0x7ffff800>
    800000a6:	8fd9                	or	a5,a5,a4
  asm volatile("csrw mstatus, %0" : : "r" (x));
    800000a8:	30079073          	csrw	mstatus,a5
  asm volatile("csrw mepc, %0" : : "r" (x));
    800000ac:	00001797          	auipc	a5,0x1
    800000b0:	02c78793          	add	a5,a5,44 # 800010d8 <main>
    800000b4:	34179073          	csrw	mepc,a5
  asm volatile("csrw satp, %0" : : "r" (x));
    800000b8:	4781                	li	a5,0
    800000ba:	18079073          	csrw	satp,a5
  asm volatile("csrw medeleg, %0" : : "r" (x));
    800000be:	67c1                	lui	a5,0x10
    800000c0:	17fd                	add	a5,a5,-1 # ffff <_entry-0x7fff0001>
    800000c2:	30279073          	csrw	medeleg,a5
  asm volatile("csrw mideleg, %0" : : "r" (x));
    800000c6:	30379073          	csrw	mideleg,a5
  asm volatile("csrr %0, sie" : "=r" (x) );
    800000ca:	104027f3          	csrr	a5,sie
  w_sie(r_sie() | SIE_SEIE | SIE_STIE | SIE_SSIE);
    800000ce:	2227e793          	or	a5,a5,546
  asm volatile("csrw sie, %0" : : "r" (x));
    800000d2:	10479073          	csrw	sie,a5
  asm volatile("csrw pmpaddr0, %0" : : "r" (x));
    800000d6:	57fd                	li	a5,-1
    800000d8:	83a9                	srl	a5,a5,0xa
    800000da:	3b079073          	csrw	pmpaddr0,a5
  asm volatile("csrw pmpcfg0, %0" : : "r" (x));
    800000de:	47bd                	li	a5,15
    800000e0:	3a079073          	csrw	pmpcfg0,a5
  timerinit();
    800000e4:	00000097          	auipc	ra,0x0
    800000e8:	f38080e7          	jalr	-200(ra) # 8000001c <timerinit>
  asm volatile("csrr %0, mhartid" : "=r" (x) );
    800000ec:	f14027f3          	csrr	a5,mhartid
  w_tp(id);
    800000f0:	2781                	sext.w	a5,a5
}

static inline void 
w_tp(uint64 x)
{
  asm volatile("mv tp, %0" : : "r" (x));
    800000f2:	823e                	mv	tp,a5
  asm volatile("mret");
    800000f4:	30200073          	mret
}
    800000f8:	60a2                	ld	ra,8(sp)
    800000fa:	6402                	ld	s0,0(sp)
    800000fc:	0141                	add	sp,sp,16
    800000fe:	8082                	ret

0000000080000100 <consolewrite>:
//
// user write()s to the console go here.
//
int
consolewrite(int user_src, uint64 src, int n)
{
    80000100:	715d                	add	sp,sp,-80
    80000102:	e486                	sd	ra,72(sp)
    80000104:	e0a2                	sd	s0,64(sp)
    80000106:	fc26                	sd	s1,56(sp)
    80000108:	f84a                	sd	s2,48(sp)
    8000010a:	f44e                	sd	s3,40(sp)
    8000010c:	f052                	sd	s4,32(sp)
    8000010e:	ec56                	sd	s5,24(sp)
    80000110:	0880                	add	s0,sp,80
  int i;

  for(i = 0; i < n; i++){
    80000112:	04c05763          	blez	a2,80000160 <consolewrite+0x60>
    80000116:	8a2a                	mv	s4,a0
    80000118:	84ae                	mv	s1,a1
    8000011a:	89b2                	mv	s3,a2
    8000011c:	4901                	li	s2,0
    char c;
    if(either_copyin(&c, user_src, src+i, 1) == -1)
    8000011e:	5afd                	li	s5,-1
    80000120:	4685                	li	a3,1
    80000122:	8626                	mv	a2,s1
    80000124:	85d2                	mv	a1,s4
    80000126:	fbf40513          	add	a0,s0,-65
    8000012a:	00002097          	auipc	ra,0x2
    8000012e:	716080e7          	jalr	1814(ra) # 80002840 <either_copyin>
    80000132:	01550d63          	beq	a0,s5,8000014c <consolewrite+0x4c>
      break;
    uartputc(c);
    80000136:	fbf44503          	lbu	a0,-65(s0)
    8000013a:	00000097          	auipc	ra,0x0
    8000013e:	780080e7          	jalr	1920(ra) # 800008ba <uartputc>
  for(i = 0; i < n; i++){
    80000142:	2905                	addw	s2,s2,1
    80000144:	0485                	add	s1,s1,1
    80000146:	fd299de3          	bne	s3,s2,80000120 <consolewrite+0x20>
    8000014a:	894e                	mv	s2,s3
  }

  return i;
}
    8000014c:	854a                	mv	a0,s2
    8000014e:	60a6                	ld	ra,72(sp)
    80000150:	6406                	ld	s0,64(sp)
    80000152:	74e2                	ld	s1,56(sp)
    80000154:	7942                	ld	s2,48(sp)
    80000156:	79a2                	ld	s3,40(sp)
    80000158:	7a02                	ld	s4,32(sp)
    8000015a:	6ae2                	ld	s5,24(sp)
    8000015c:	6161                	add	sp,sp,80
    8000015e:	8082                	ret
  for(i = 0; i < n; i++){
    80000160:	4901                	li	s2,0
    80000162:	b7ed                	j	8000014c <consolewrite+0x4c>

0000000080000164 <consoleread>:
// user_dist indicates whether dst is a user
// or kernel address.
//
int
consoleread(int user_dst, uint64 dst, int n)
{
    80000164:	711d                	add	sp,sp,-96
    80000166:	ec86                	sd	ra,88(sp)
    80000168:	e8a2                	sd	s0,80(sp)
    8000016a:	e4a6                	sd	s1,72(sp)
    8000016c:	e0ca                	sd	s2,64(sp)
    8000016e:	fc4e                	sd	s3,56(sp)
    80000170:	f852                	sd	s4,48(sp)
    80000172:	f456                	sd	s5,40(sp)
    80000174:	f05a                	sd	s6,32(sp)
    80000176:	ec5e                	sd	s7,24(sp)
    80000178:	1080                	add	s0,sp,96
    8000017a:	8aaa                	mv	s5,a0
    8000017c:	8a2e                	mv	s4,a1
    8000017e:	89b2                	mv	s3,a2
  uint target;
  int c;
  char cbuf;

  target = n;
    80000180:	00060b1b          	sext.w	s6,a2
  acquire(&cons.lock);
    80000184:	00011517          	auipc	a0,0x11
    80000188:	8cc50513          	add	a0,a0,-1844 # 80010a50 <cons>
    8000018c:	00001097          	auipc	ra,0x1
    80000190:	cac080e7          	jalr	-852(ra) # 80000e38 <acquire>
  while(n > 0){
    // wait until interrupt handler has put some
    // input into cons.buffer.
    while(cons.r == cons.w){
    80000194:	00011497          	auipc	s1,0x11
    80000198:	8bc48493          	add	s1,s1,-1860 # 80010a50 <cons>
      if(killed(myproc())){
        release(&cons.lock);
        return -1;
      }
      sleep(&cons.r, &cons.lock);
    8000019c:	00011917          	auipc	s2,0x11
    800001a0:	94c90913          	add	s2,s2,-1716 # 80010ae8 <cons+0x98>
  while(n > 0){
    800001a4:	09305263          	blez	s3,80000228 <consoleread+0xc4>
    while(cons.r == cons.w){
    800001a8:	0984a783          	lw	a5,152(s1)
    800001ac:	09c4a703          	lw	a4,156(s1)
    800001b0:	02f71763          	bne	a4,a5,800001de <consoleread+0x7a>
      if(killed(myproc())){
    800001b4:	00002097          	auipc	ra,0x2
    800001b8:	a50080e7          	jalr	-1456(ra) # 80001c04 <myproc>
    800001bc:	00002097          	auipc	ra,0x2
    800001c0:	4ce080e7          	jalr	1230(ra) # 8000268a <killed>
    800001c4:	ed2d                	bnez	a0,8000023e <consoleread+0xda>
      sleep(&cons.r, &cons.lock);
    800001c6:	85a6                	mv	a1,s1
    800001c8:	854a                	mv	a0,s2
    800001ca:	00002097          	auipc	ra,0x2
    800001ce:	20c080e7          	jalr	524(ra) # 800023d6 <sleep>
    while(cons.r == cons.w){
    800001d2:	0984a783          	lw	a5,152(s1)
    800001d6:	09c4a703          	lw	a4,156(s1)
    800001da:	fcf70de3          	beq	a4,a5,800001b4 <consoleread+0x50>
    }

    c = cons.buf[cons.r++ % INPUT_BUF_SIZE];
    800001de:	00011717          	auipc	a4,0x11
    800001e2:	87270713          	add	a4,a4,-1934 # 80010a50 <cons>
    800001e6:	0017869b          	addw	a3,a5,1
    800001ea:	08d72c23          	sw	a3,152(a4)
    800001ee:	07f7f693          	and	a3,a5,127
    800001f2:	9736                	add	a4,a4,a3
    800001f4:	01874703          	lbu	a4,24(a4)
    800001f8:	00070b9b          	sext.w	s7,a4

    if(c == C('D')){  // end-of-file
    800001fc:	4691                	li	a3,4
    800001fe:	06db8463          	beq	s7,a3,80000266 <consoleread+0x102>
      }
      break;
    }

    // copy the input byte to the user-space buffer.
    cbuf = c;
    80000202:	fae407a3          	sb	a4,-81(s0)
    if(either_copyout(user_dst, dst, &cbuf, 1) == -1)
    80000206:	4685                	li	a3,1
    80000208:	faf40613          	add	a2,s0,-81
    8000020c:	85d2                	mv	a1,s4
    8000020e:	8556                	mv	a0,s5
    80000210:	00002097          	auipc	ra,0x2
    80000214:	5da080e7          	jalr	1498(ra) # 800027ea <either_copyout>
    80000218:	57fd                	li	a5,-1
    8000021a:	00f50763          	beq	a0,a5,80000228 <consoleread+0xc4>
      break;

    dst++;
    8000021e:	0a05                	add	s4,s4,1
    --n;
    80000220:	39fd                	addw	s3,s3,-1

    if(c == '\n'){
    80000222:	47a9                	li	a5,10
    80000224:	f8fb90e3          	bne	s7,a5,800001a4 <consoleread+0x40>
      // a whole line has arrived, return to
      // the user-level read().
      break;
    }
  }
  release(&cons.lock);
    80000228:	00011517          	auipc	a0,0x11
    8000022c:	82850513          	add	a0,a0,-2008 # 80010a50 <cons>
    80000230:	00001097          	auipc	ra,0x1
    80000234:	cbc080e7          	jalr	-836(ra) # 80000eec <release>

  return target - n;
    80000238:	413b053b          	subw	a0,s6,s3
    8000023c:	a811                	j	80000250 <consoleread+0xec>
        release(&cons.lock);
    8000023e:	00011517          	auipc	a0,0x11
    80000242:	81250513          	add	a0,a0,-2030 # 80010a50 <cons>
    80000246:	00001097          	auipc	ra,0x1
    8000024a:	ca6080e7          	jalr	-858(ra) # 80000eec <release>
        return -1;
    8000024e:	557d                	li	a0,-1
}
    80000250:	60e6                	ld	ra,88(sp)
    80000252:	6446                	ld	s0,80(sp)
    80000254:	64a6                	ld	s1,72(sp)
    80000256:	6906                	ld	s2,64(sp)
    80000258:	79e2                	ld	s3,56(sp)
    8000025a:	7a42                	ld	s4,48(sp)
    8000025c:	7aa2                	ld	s5,40(sp)
    8000025e:	7b02                	ld	s6,32(sp)
    80000260:	6be2                	ld	s7,24(sp)
    80000262:	6125                	add	sp,sp,96
    80000264:	8082                	ret
      if(n < target){
    80000266:	0009871b          	sext.w	a4,s3
    8000026a:	fb677fe3          	bgeu	a4,s6,80000228 <consoleread+0xc4>
        cons.r--;
    8000026e:	00011717          	auipc	a4,0x11
    80000272:	86f72d23          	sw	a5,-1926(a4) # 80010ae8 <cons+0x98>
    80000276:	bf4d                	j	80000228 <consoleread+0xc4>

0000000080000278 <consputc>:
{
    80000278:	1141                	add	sp,sp,-16
    8000027a:	e406                	sd	ra,8(sp)
    8000027c:	e022                	sd	s0,0(sp)
    8000027e:	0800                	add	s0,sp,16
  if(c == BACKSPACE){
    80000280:	10000793          	li	a5,256
    80000284:	00f50a63          	beq	a0,a5,80000298 <consputc+0x20>
    uartputc_sync(c);
    80000288:	00000097          	auipc	ra,0x0
    8000028c:	560080e7          	jalr	1376(ra) # 800007e8 <uartputc_sync>
}
    80000290:	60a2                	ld	ra,8(sp)
    80000292:	6402                	ld	s0,0(sp)
    80000294:	0141                	add	sp,sp,16
    80000296:	8082                	ret
    uartputc_sync('\b'); uartputc_sync(' '); uartputc_sync('\b');
    80000298:	4521                	li	a0,8
    8000029a:	00000097          	auipc	ra,0x0
    8000029e:	54e080e7          	jalr	1358(ra) # 800007e8 <uartputc_sync>
    800002a2:	02000513          	li	a0,32
    800002a6:	00000097          	auipc	ra,0x0
    800002aa:	542080e7          	jalr	1346(ra) # 800007e8 <uartputc_sync>
    800002ae:	4521                	li	a0,8
    800002b0:	00000097          	auipc	ra,0x0
    800002b4:	538080e7          	jalr	1336(ra) # 800007e8 <uartputc_sync>
    800002b8:	bfe1                	j	80000290 <consputc+0x18>

00000000800002ba <consoleintr>:
// do erase/kill processing, append to cons.buf,
// wake up consoleread() if a whole line has arrived.
//
void
consoleintr(int c)
{
    800002ba:	1101                	add	sp,sp,-32
    800002bc:	ec06                	sd	ra,24(sp)
    800002be:	e822                	sd	s0,16(sp)
    800002c0:	e426                	sd	s1,8(sp)
    800002c2:	e04a                	sd	s2,0(sp)
    800002c4:	1000                	add	s0,sp,32
    800002c6:	84aa                	mv	s1,a0
  acquire(&cons.lock);
    800002c8:	00010517          	auipc	a0,0x10
    800002cc:	78850513          	add	a0,a0,1928 # 80010a50 <cons>
    800002d0:	00001097          	auipc	ra,0x1
    800002d4:	b68080e7          	jalr	-1176(ra) # 80000e38 <acquire>

  switch(c){
    800002d8:	47d5                	li	a5,21
    800002da:	0af48663          	beq	s1,a5,80000386 <consoleintr+0xcc>
    800002de:	0297ca63          	blt	a5,s1,80000312 <consoleintr+0x58>
    800002e2:	47a1                	li	a5,8
    800002e4:	0ef48763          	beq	s1,a5,800003d2 <consoleintr+0x118>
    800002e8:	47c1                	li	a5,16
    800002ea:	10f49a63          	bne	s1,a5,800003fe <consoleintr+0x144>
  case C('P'):  // Print process list.
    procdump();
    800002ee:	00002097          	auipc	ra,0x2
    800002f2:	5a8080e7          	jalr	1448(ra) # 80002896 <procdump>
      }
    }
    break;
  }
  
  release(&cons.lock);
    800002f6:	00010517          	auipc	a0,0x10
    800002fa:	75a50513          	add	a0,a0,1882 # 80010a50 <cons>
    800002fe:	00001097          	auipc	ra,0x1
    80000302:	bee080e7          	jalr	-1042(ra) # 80000eec <release>
}
    80000306:	60e2                	ld	ra,24(sp)
    80000308:	6442                	ld	s0,16(sp)
    8000030a:	64a2                	ld	s1,8(sp)
    8000030c:	6902                	ld	s2,0(sp)
    8000030e:	6105                	add	sp,sp,32
    80000310:	8082                	ret
  switch(c){
    80000312:	07f00793          	li	a5,127
    80000316:	0af48e63          	beq	s1,a5,800003d2 <consoleintr+0x118>
    if(c != 0 && cons.e-cons.r < INPUT_BUF_SIZE){
    8000031a:	00010717          	auipc	a4,0x10
    8000031e:	73670713          	add	a4,a4,1846 # 80010a50 <cons>
    80000322:	0a072783          	lw	a5,160(a4)
    80000326:	09872703          	lw	a4,152(a4)
    8000032a:	9f99                	subw	a5,a5,a4
    8000032c:	07f00713          	li	a4,127
    80000330:	fcf763e3          	bltu	a4,a5,800002f6 <consoleintr+0x3c>
      c = (c == '\r') ? '\n' : c;
    80000334:	47b5                	li	a5,13
    80000336:	0cf48763          	beq	s1,a5,80000404 <consoleintr+0x14a>
      consputc(c);
    8000033a:	8526                	mv	a0,s1
    8000033c:	00000097          	auipc	ra,0x0
    80000340:	f3c080e7          	jalr	-196(ra) # 80000278 <consputc>
      cons.buf[cons.e++ % INPUT_BUF_SIZE] = c;
    80000344:	00010797          	auipc	a5,0x10
    80000348:	70c78793          	add	a5,a5,1804 # 80010a50 <cons>
    8000034c:	0a07a683          	lw	a3,160(a5)
    80000350:	0016871b          	addw	a4,a3,1
    80000354:	0007061b          	sext.w	a2,a4
    80000358:	0ae7a023          	sw	a4,160(a5)
    8000035c:	07f6f693          	and	a3,a3,127
    80000360:	97b6                	add	a5,a5,a3
    80000362:	00978c23          	sb	s1,24(a5)
      if(c == '\n' || c == C('D') || cons.e-cons.r == INPUT_BUF_SIZE){
    80000366:	47a9                	li	a5,10
    80000368:	0cf48563          	beq	s1,a5,80000432 <consoleintr+0x178>
    8000036c:	4791                	li	a5,4
    8000036e:	0cf48263          	beq	s1,a5,80000432 <consoleintr+0x178>
    80000372:	00010797          	auipc	a5,0x10
    80000376:	7767a783          	lw	a5,1910(a5) # 80010ae8 <cons+0x98>
    8000037a:	9f1d                	subw	a4,a4,a5
    8000037c:	08000793          	li	a5,128
    80000380:	f6f71be3          	bne	a4,a5,800002f6 <consoleintr+0x3c>
    80000384:	a07d                	j	80000432 <consoleintr+0x178>
    while(cons.e != cons.w &&
    80000386:	00010717          	auipc	a4,0x10
    8000038a:	6ca70713          	add	a4,a4,1738 # 80010a50 <cons>
    8000038e:	0a072783          	lw	a5,160(a4)
    80000392:	09c72703          	lw	a4,156(a4)
          cons.buf[(cons.e-1) % INPUT_BUF_SIZE] != '\n'){
    80000396:	00010497          	auipc	s1,0x10
    8000039a:	6ba48493          	add	s1,s1,1722 # 80010a50 <cons>
    while(cons.e != cons.w &&
    8000039e:	4929                	li	s2,10
    800003a0:	f4f70be3          	beq	a4,a5,800002f6 <consoleintr+0x3c>
          cons.buf[(cons.e-1) % INPUT_BUF_SIZE] != '\n'){
    800003a4:	37fd                	addw	a5,a5,-1
    800003a6:	07f7f713          	and	a4,a5,127
    800003aa:	9726                	add	a4,a4,s1
    while(cons.e != cons.w &&
    800003ac:	01874703          	lbu	a4,24(a4)
    800003b0:	f52703e3          	beq	a4,s2,800002f6 <consoleintr+0x3c>
      cons.e--;
    800003b4:	0af4a023          	sw	a5,160(s1)
      consputc(BACKSPACE);
    800003b8:	10000513          	li	a0,256
    800003bc:	00000097          	auipc	ra,0x0
    800003c0:	ebc080e7          	jalr	-324(ra) # 80000278 <consputc>
    while(cons.e != cons.w &&
    800003c4:	0a04a783          	lw	a5,160(s1)
    800003c8:	09c4a703          	lw	a4,156(s1)
    800003cc:	fcf71ce3          	bne	a4,a5,800003a4 <consoleintr+0xea>
    800003d0:	b71d                	j	800002f6 <consoleintr+0x3c>
    if(cons.e != cons.w){
    800003d2:	00010717          	auipc	a4,0x10
    800003d6:	67e70713          	add	a4,a4,1662 # 80010a50 <cons>
    800003da:	0a072783          	lw	a5,160(a4)
    800003de:	09c72703          	lw	a4,156(a4)
    800003e2:	f0f70ae3          	beq	a4,a5,800002f6 <consoleintr+0x3c>
      cons.e--;
    800003e6:	37fd                	addw	a5,a5,-1
    800003e8:	00010717          	auipc	a4,0x10
    800003ec:	70f72423          	sw	a5,1800(a4) # 80010af0 <cons+0xa0>
      consputc(BACKSPACE);
    800003f0:	10000513          	li	a0,256
    800003f4:	00000097          	auipc	ra,0x0
    800003f8:	e84080e7          	jalr	-380(ra) # 80000278 <consputc>
    800003fc:	bded                	j	800002f6 <consoleintr+0x3c>
    if(c != 0 && cons.e-cons.r < INPUT_BUF_SIZE){
    800003fe:	ee048ce3          	beqz	s1,800002f6 <consoleintr+0x3c>
    80000402:	bf21                	j	8000031a <consoleintr+0x60>
      consputc(c);
    80000404:	4529                	li	a0,10
    80000406:	00000097          	auipc	ra,0x0
    8000040a:	e72080e7          	jalr	-398(ra) # 80000278 <consputc>
      cons.buf[cons.e++ % INPUT_BUF_SIZE] = c;
    8000040e:	00010797          	auipc	a5,0x10
    80000412:	64278793          	add	a5,a5,1602 # 80010a50 <cons>
    80000416:	0a07a703          	lw	a4,160(a5)
    8000041a:	0017069b          	addw	a3,a4,1
    8000041e:	0006861b          	sext.w	a2,a3
    80000422:	0ad7a023          	sw	a3,160(a5)
    80000426:	07f77713          	and	a4,a4,127
    8000042a:	97ba                	add	a5,a5,a4
    8000042c:	4729                	li	a4,10
    8000042e:	00e78c23          	sb	a4,24(a5)
        cons.w = cons.e;
    80000432:	00010797          	auipc	a5,0x10
    80000436:	6ac7ad23          	sw	a2,1722(a5) # 80010aec <cons+0x9c>
        wakeup(&cons.r);
    8000043a:	00010517          	auipc	a0,0x10
    8000043e:	6ae50513          	add	a0,a0,1710 # 80010ae8 <cons+0x98>
    80000442:	00002097          	auipc	ra,0x2
    80000446:	ff8080e7          	jalr	-8(ra) # 8000243a <wakeup>
    8000044a:	b575                	j	800002f6 <consoleintr+0x3c>

000000008000044c <consoleinit>:

void
consoleinit(void)
{
    8000044c:	1141                	add	sp,sp,-16
    8000044e:	e406                	sd	ra,8(sp)
    80000450:	e022                	sd	s0,0(sp)
    80000452:	0800                	add	s0,sp,16
  initlock(&cons.lock, "cons");
    80000454:	00008597          	auipc	a1,0x8
    80000458:	bbc58593          	add	a1,a1,-1092 # 80008010 <etext+0x10>
    8000045c:	00010517          	auipc	a0,0x10
    80000460:	5f450513          	add	a0,a0,1524 # 80010a50 <cons>
    80000464:	00001097          	auipc	ra,0x1
    80000468:	944080e7          	jalr	-1724(ra) # 80000da8 <initlock>

  uartinit();
    8000046c:	00000097          	auipc	ra,0x0
    80000470:	32c080e7          	jalr	812(ra) # 80000798 <uartinit>

  // connect read and write system calls
  // to consoleread and consolewrite.
  devsw[CONSOLE].read = consoleread;
    80000474:	00041797          	auipc	a5,0x41
    80000478:	18c78793          	add	a5,a5,396 # 80041600 <devsw>
    8000047c:	00000717          	auipc	a4,0x0
    80000480:	ce870713          	add	a4,a4,-792 # 80000164 <consoleread>
    80000484:	eb98                	sd	a4,16(a5)
  devsw[CONSOLE].write = consolewrite;
    80000486:	00000717          	auipc	a4,0x0
    8000048a:	c7a70713          	add	a4,a4,-902 # 80000100 <consolewrite>
    8000048e:	ef98                	sd	a4,24(a5)
}
    80000490:	60a2                	ld	ra,8(sp)
    80000492:	6402                	ld	s0,0(sp)
    80000494:	0141                	add	sp,sp,16
    80000496:	8082                	ret

0000000080000498 <printint>:

static char digits[] = "0123456789abcdef";

static void
printint(int xx, int base, int sign)
{
    80000498:	7179                	add	sp,sp,-48
    8000049a:	f406                	sd	ra,40(sp)
    8000049c:	f022                	sd	s0,32(sp)
    8000049e:	ec26                	sd	s1,24(sp)
    800004a0:	e84a                	sd	s2,16(sp)
    800004a2:	1800                	add	s0,sp,48
  char buf[16];
  int i;
  uint x;

  if(sign && (sign = xx < 0))
    800004a4:	c219                	beqz	a2,800004aa <printint+0x12>
    800004a6:	08054763          	bltz	a0,80000534 <printint+0x9c>
    x = -xx;
  else
    x = xx;
    800004aa:	2501                	sext.w	a0,a0
    800004ac:	4881                	li	a7,0
    800004ae:	fd040693          	add	a3,s0,-48

  i = 0;
    800004b2:	4701                	li	a4,0
  do {
    buf[i++] = digits[x % base];
    800004b4:	2581                	sext.w	a1,a1
    800004b6:	00008617          	auipc	a2,0x8
    800004ba:	b8a60613          	add	a2,a2,-1142 # 80008040 <digits>
    800004be:	883a                	mv	a6,a4
    800004c0:	2705                	addw	a4,a4,1
    800004c2:	02b577bb          	remuw	a5,a0,a1
    800004c6:	1782                	sll	a5,a5,0x20
    800004c8:	9381                	srl	a5,a5,0x20
    800004ca:	97b2                	add	a5,a5,a2
    800004cc:	0007c783          	lbu	a5,0(a5)
    800004d0:	00f68023          	sb	a5,0(a3)
  } while((x /= base) != 0);
    800004d4:	0005079b          	sext.w	a5,a0
    800004d8:	02b5553b          	divuw	a0,a0,a1
    800004dc:	0685                	add	a3,a3,1
    800004de:	feb7f0e3          	bgeu	a5,a1,800004be <printint+0x26>

  if(sign)
    800004e2:	00088c63          	beqz	a7,800004fa <printint+0x62>
    buf[i++] = '-';
    800004e6:	fe070793          	add	a5,a4,-32
    800004ea:	00878733          	add	a4,a5,s0
    800004ee:	02d00793          	li	a5,45
    800004f2:	fef70823          	sb	a5,-16(a4)
    800004f6:	0028071b          	addw	a4,a6,2

  while(--i >= 0)
    800004fa:	02e05763          	blez	a4,80000528 <printint+0x90>
    800004fe:	fd040793          	add	a5,s0,-48
    80000502:	00e784b3          	add	s1,a5,a4
    80000506:	fff78913          	add	s2,a5,-1
    8000050a:	993a                	add	s2,s2,a4
    8000050c:	377d                	addw	a4,a4,-1
    8000050e:	1702                	sll	a4,a4,0x20
    80000510:	9301                	srl	a4,a4,0x20
    80000512:	40e90933          	sub	s2,s2,a4
    consputc(buf[i]);
    80000516:	fff4c503          	lbu	a0,-1(s1)
    8000051a:	00000097          	auipc	ra,0x0
    8000051e:	d5e080e7          	jalr	-674(ra) # 80000278 <consputc>
  while(--i >= 0)
    80000522:	14fd                	add	s1,s1,-1
    80000524:	ff2499e3          	bne	s1,s2,80000516 <printint+0x7e>
}
    80000528:	70a2                	ld	ra,40(sp)
    8000052a:	7402                	ld	s0,32(sp)
    8000052c:	64e2                	ld	s1,24(sp)
    8000052e:	6942                	ld	s2,16(sp)
    80000530:	6145                	add	sp,sp,48
    80000532:	8082                	ret
    x = -xx;
    80000534:	40a0053b          	negw	a0,a0
  if(sign && (sign = xx < 0))
    80000538:	4885                	li	a7,1
    x = -xx;
    8000053a:	bf95                	j	800004ae <printint+0x16>

000000008000053c <panic>:
    release(&pr.lock);
}

void
panic(char *s)
{
    8000053c:	1101                	add	sp,sp,-32
    8000053e:	ec06                	sd	ra,24(sp)
    80000540:	e822                	sd	s0,16(sp)
    80000542:	e426                	sd	s1,8(sp)
    80000544:	1000                	add	s0,sp,32
    80000546:	84aa                	mv	s1,a0
  pr.locking = 0;
    80000548:	00010797          	auipc	a5,0x10
    8000054c:	5c07a423          	sw	zero,1480(a5) # 80010b10 <pr+0x18>
  printf("panic: ");
    80000550:	00008517          	auipc	a0,0x8
    80000554:	ac850513          	add	a0,a0,-1336 # 80008018 <etext+0x18>
    80000558:	00000097          	auipc	ra,0x0
    8000055c:	02e080e7          	jalr	46(ra) # 80000586 <printf>
  printf(s);
    80000560:	8526                	mv	a0,s1
    80000562:	00000097          	auipc	ra,0x0
    80000566:	024080e7          	jalr	36(ra) # 80000586 <printf>
  printf("\n");
    8000056a:	00008517          	auipc	a0,0x8
    8000056e:	b7e50513          	add	a0,a0,-1154 # 800080e8 <digits+0xa8>
    80000572:	00000097          	auipc	ra,0x0
    80000576:	014080e7          	jalr	20(ra) # 80000586 <printf>
  panicked = 1; // freeze uart output from other CPUs
    8000057a:	4785                	li	a5,1
    8000057c:	00008717          	auipc	a4,0x8
    80000580:	34f72a23          	sw	a5,852(a4) # 800088d0 <panicked>
  for(;;)
    80000584:	a001                	j	80000584 <panic+0x48>

0000000080000586 <printf>:
{
    80000586:	7131                	add	sp,sp,-192
    80000588:	fc86                	sd	ra,120(sp)
    8000058a:	f8a2                	sd	s0,112(sp)
    8000058c:	f4a6                	sd	s1,104(sp)
    8000058e:	f0ca                	sd	s2,96(sp)
    80000590:	ecce                	sd	s3,88(sp)
    80000592:	e8d2                	sd	s4,80(sp)
    80000594:	e4d6                	sd	s5,72(sp)
    80000596:	e0da                	sd	s6,64(sp)
    80000598:	fc5e                	sd	s7,56(sp)
    8000059a:	f862                	sd	s8,48(sp)
    8000059c:	f466                	sd	s9,40(sp)
    8000059e:	f06a                	sd	s10,32(sp)
    800005a0:	ec6e                	sd	s11,24(sp)
    800005a2:	0100                	add	s0,sp,128
    800005a4:	8a2a                	mv	s4,a0
    800005a6:	e40c                	sd	a1,8(s0)
    800005a8:	e810                	sd	a2,16(s0)
    800005aa:	ec14                	sd	a3,24(s0)
    800005ac:	f018                	sd	a4,32(s0)
    800005ae:	f41c                	sd	a5,40(s0)
    800005b0:	03043823          	sd	a6,48(s0)
    800005b4:	03143c23          	sd	a7,56(s0)
  locking = pr.locking;
    800005b8:	00010d97          	auipc	s11,0x10
    800005bc:	558dad83          	lw	s11,1368(s11) # 80010b10 <pr+0x18>
  if(locking)
    800005c0:	020d9b63          	bnez	s11,800005f6 <printf+0x70>
  if (fmt == 0)
    800005c4:	040a0263          	beqz	s4,80000608 <printf+0x82>
  va_start(ap, fmt);
    800005c8:	00840793          	add	a5,s0,8
    800005cc:	f8f43423          	sd	a5,-120(s0)
  for(i = 0; (c = fmt[i] & 0xff) != 0; i++){
    800005d0:	000a4503          	lbu	a0,0(s4)
    800005d4:	14050f63          	beqz	a0,80000732 <printf+0x1ac>
    800005d8:	4981                	li	s3,0
    if(c != '%'){
    800005da:	02500a93          	li	s5,37
    switch(c){
    800005de:	07000b93          	li	s7,112
  consputc('x');
    800005e2:	4d41                	li	s10,16
    consputc(digits[x >> (sizeof(uint64) * 8 - 4)]);
    800005e4:	00008b17          	auipc	s6,0x8
    800005e8:	a5cb0b13          	add	s6,s6,-1444 # 80008040 <digits>
    switch(c){
    800005ec:	07300c93          	li	s9,115
    800005f0:	06400c13          	li	s8,100
    800005f4:	a82d                	j	8000062e <printf+0xa8>
    acquire(&pr.lock);
    800005f6:	00010517          	auipc	a0,0x10
    800005fa:	50250513          	add	a0,a0,1282 # 80010af8 <pr>
    800005fe:	00001097          	auipc	ra,0x1
    80000602:	83a080e7          	jalr	-1990(ra) # 80000e38 <acquire>
    80000606:	bf7d                	j	800005c4 <printf+0x3e>
    panic("null fmt");
    80000608:	00008517          	auipc	a0,0x8
    8000060c:	a2050513          	add	a0,a0,-1504 # 80008028 <etext+0x28>
    80000610:	00000097          	auipc	ra,0x0
    80000614:	f2c080e7          	jalr	-212(ra) # 8000053c <panic>
      consputc(c);
    80000618:	00000097          	auipc	ra,0x0
    8000061c:	c60080e7          	jalr	-928(ra) # 80000278 <consputc>
  for(i = 0; (c = fmt[i] & 0xff) != 0; i++){
    80000620:	2985                	addw	s3,s3,1
    80000622:	013a07b3          	add	a5,s4,s3
    80000626:	0007c503          	lbu	a0,0(a5)
    8000062a:	10050463          	beqz	a0,80000732 <printf+0x1ac>
    if(c != '%'){
    8000062e:	ff5515e3          	bne	a0,s5,80000618 <printf+0x92>
    c = fmt[++i] & 0xff;
    80000632:	2985                	addw	s3,s3,1
    80000634:	013a07b3          	add	a5,s4,s3
    80000638:	0007c783          	lbu	a5,0(a5)
    8000063c:	0007849b          	sext.w	s1,a5
    if(c == 0)
    80000640:	cbed                	beqz	a5,80000732 <printf+0x1ac>
    switch(c){
    80000642:	05778a63          	beq	a5,s7,80000696 <printf+0x110>
    80000646:	02fbf663          	bgeu	s7,a5,80000672 <printf+0xec>
    8000064a:	09978863          	beq	a5,s9,800006da <printf+0x154>
    8000064e:	07800713          	li	a4,120
    80000652:	0ce79563          	bne	a5,a4,8000071c <printf+0x196>
      printint(va_arg(ap, int), 16, 1);
    80000656:	f8843783          	ld	a5,-120(s0)
    8000065a:	00878713          	add	a4,a5,8
    8000065e:	f8e43423          	sd	a4,-120(s0)
    80000662:	4605                	li	a2,1
    80000664:	85ea                	mv	a1,s10
    80000666:	4388                	lw	a0,0(a5)
    80000668:	00000097          	auipc	ra,0x0
    8000066c:	e30080e7          	jalr	-464(ra) # 80000498 <printint>
      break;
    80000670:	bf45                	j	80000620 <printf+0x9a>
    switch(c){
    80000672:	09578f63          	beq	a5,s5,80000710 <printf+0x18a>
    80000676:	0b879363          	bne	a5,s8,8000071c <printf+0x196>
      printint(va_arg(ap, int), 10, 1);
    8000067a:	f8843783          	ld	a5,-120(s0)
    8000067e:	00878713          	add	a4,a5,8
    80000682:	f8e43423          	sd	a4,-120(s0)
    80000686:	4605                	li	a2,1
    80000688:	45a9                	li	a1,10
    8000068a:	4388                	lw	a0,0(a5)
    8000068c:	00000097          	auipc	ra,0x0
    80000690:	e0c080e7          	jalr	-500(ra) # 80000498 <printint>
      break;
    80000694:	b771                	j	80000620 <printf+0x9a>
      printptr(va_arg(ap, uint64));
    80000696:	f8843783          	ld	a5,-120(s0)
    8000069a:	00878713          	add	a4,a5,8
    8000069e:	f8e43423          	sd	a4,-120(s0)
    800006a2:	0007b903          	ld	s2,0(a5)
  consputc('0');
    800006a6:	03000513          	li	a0,48
    800006aa:	00000097          	auipc	ra,0x0
    800006ae:	bce080e7          	jalr	-1074(ra) # 80000278 <consputc>
  consputc('x');
    800006b2:	07800513          	li	a0,120
    800006b6:	00000097          	auipc	ra,0x0
    800006ba:	bc2080e7          	jalr	-1086(ra) # 80000278 <consputc>
    800006be:	84ea                	mv	s1,s10
    consputc(digits[x >> (sizeof(uint64) * 8 - 4)]);
    800006c0:	03c95793          	srl	a5,s2,0x3c
    800006c4:	97da                	add	a5,a5,s6
    800006c6:	0007c503          	lbu	a0,0(a5)
    800006ca:	00000097          	auipc	ra,0x0
    800006ce:	bae080e7          	jalr	-1106(ra) # 80000278 <consputc>
  for (i = 0; i < (sizeof(uint64) * 2); i++, x <<= 4)
    800006d2:	0912                	sll	s2,s2,0x4
    800006d4:	34fd                	addw	s1,s1,-1
    800006d6:	f4ed                	bnez	s1,800006c0 <printf+0x13a>
    800006d8:	b7a1                	j	80000620 <printf+0x9a>
      if((s = va_arg(ap, char*)) == 0)
    800006da:	f8843783          	ld	a5,-120(s0)
    800006de:	00878713          	add	a4,a5,8
    800006e2:	f8e43423          	sd	a4,-120(s0)
    800006e6:	6384                	ld	s1,0(a5)
    800006e8:	cc89                	beqz	s1,80000702 <printf+0x17c>
      for(; *s; s++)
    800006ea:	0004c503          	lbu	a0,0(s1)
    800006ee:	d90d                	beqz	a0,80000620 <printf+0x9a>
        consputc(*s);
    800006f0:	00000097          	auipc	ra,0x0
    800006f4:	b88080e7          	jalr	-1144(ra) # 80000278 <consputc>
      for(; *s; s++)
    800006f8:	0485                	add	s1,s1,1
    800006fa:	0004c503          	lbu	a0,0(s1)
    800006fe:	f96d                	bnez	a0,800006f0 <printf+0x16a>
    80000700:	b705                	j	80000620 <printf+0x9a>
        s = "(null)";
    80000702:	00008497          	auipc	s1,0x8
    80000706:	91e48493          	add	s1,s1,-1762 # 80008020 <etext+0x20>
      for(; *s; s++)
    8000070a:	02800513          	li	a0,40
    8000070e:	b7cd                	j	800006f0 <printf+0x16a>
      consputc('%');
    80000710:	8556                	mv	a0,s5
    80000712:	00000097          	auipc	ra,0x0
    80000716:	b66080e7          	jalr	-1178(ra) # 80000278 <consputc>
      break;
    8000071a:	b719                	j	80000620 <printf+0x9a>
      consputc('%');
    8000071c:	8556                	mv	a0,s5
    8000071e:	00000097          	auipc	ra,0x0
    80000722:	b5a080e7          	jalr	-1190(ra) # 80000278 <consputc>
      consputc(c);
    80000726:	8526                	mv	a0,s1
    80000728:	00000097          	auipc	ra,0x0
    8000072c:	b50080e7          	jalr	-1200(ra) # 80000278 <consputc>
      break;
    80000730:	bdc5                	j	80000620 <printf+0x9a>
  if(locking)
    80000732:	020d9163          	bnez	s11,80000754 <printf+0x1ce>
}
    80000736:	70e6                	ld	ra,120(sp)
    80000738:	7446                	ld	s0,112(sp)
    8000073a:	74a6                	ld	s1,104(sp)
    8000073c:	7906                	ld	s2,96(sp)
    8000073e:	69e6                	ld	s3,88(sp)
    80000740:	6a46                	ld	s4,80(sp)
    80000742:	6aa6                	ld	s5,72(sp)
    80000744:	6b06                	ld	s6,64(sp)
    80000746:	7be2                	ld	s7,56(sp)
    80000748:	7c42                	ld	s8,48(sp)
    8000074a:	7ca2                	ld	s9,40(sp)
    8000074c:	7d02                	ld	s10,32(sp)
    8000074e:	6de2                	ld	s11,24(sp)
    80000750:	6129                	add	sp,sp,192
    80000752:	8082                	ret
    release(&pr.lock);
    80000754:	00010517          	auipc	a0,0x10
    80000758:	3a450513          	add	a0,a0,932 # 80010af8 <pr>
    8000075c:	00000097          	auipc	ra,0x0
    80000760:	790080e7          	jalr	1936(ra) # 80000eec <release>
}
    80000764:	bfc9                	j	80000736 <printf+0x1b0>

0000000080000766 <printfinit>:
    ;
}

void
printfinit(void)
{
    80000766:	1101                	add	sp,sp,-32
    80000768:	ec06                	sd	ra,24(sp)
    8000076a:	e822                	sd	s0,16(sp)
    8000076c:	e426                	sd	s1,8(sp)
    8000076e:	1000                	add	s0,sp,32
  initlock(&pr.lock, "pr");
    80000770:	00010497          	auipc	s1,0x10
    80000774:	38848493          	add	s1,s1,904 # 80010af8 <pr>
    80000778:	00008597          	auipc	a1,0x8
    8000077c:	8c058593          	add	a1,a1,-1856 # 80008038 <etext+0x38>
    80000780:	8526                	mv	a0,s1
    80000782:	00000097          	auipc	ra,0x0
    80000786:	626080e7          	jalr	1574(ra) # 80000da8 <initlock>
  pr.locking = 1;
    8000078a:	4785                	li	a5,1
    8000078c:	cc9c                	sw	a5,24(s1)
}
    8000078e:	60e2                	ld	ra,24(sp)
    80000790:	6442                	ld	s0,16(sp)
    80000792:	64a2                	ld	s1,8(sp)
    80000794:	6105                	add	sp,sp,32
    80000796:	8082                	ret

0000000080000798 <uartinit>:

void uartstart();

void
uartinit(void)
{
    80000798:	1141                	add	sp,sp,-16
    8000079a:	e406                	sd	ra,8(sp)
    8000079c:	e022                	sd	s0,0(sp)
    8000079e:	0800                	add	s0,sp,16
  // disable interrupts.
  WriteReg(IER, 0x00);
    800007a0:	100007b7          	lui	a5,0x10000
    800007a4:	000780a3          	sb	zero,1(a5) # 10000001 <_entry-0x6fffffff>

  // special mode to set baud rate.
  WriteReg(LCR, LCR_BAUD_LATCH);
    800007a8:	f8000713          	li	a4,-128
    800007ac:	00e781a3          	sb	a4,3(a5)

  // LSB for baud rate of 38.4K.
  WriteReg(0, 0x03);
    800007b0:	470d                	li	a4,3
    800007b2:	00e78023          	sb	a4,0(a5)

  // MSB for baud rate of 38.4K.
  WriteReg(1, 0x00);
    800007b6:	000780a3          	sb	zero,1(a5)

  // leave set-baud mode,
  // and set word length to 8 bits, no parity.
  WriteReg(LCR, LCR_EIGHT_BITS);
    800007ba:	00e781a3          	sb	a4,3(a5)

  // reset and enable FIFOs.
  WriteReg(FCR, FCR_FIFO_ENABLE | FCR_FIFO_CLEAR);
    800007be:	469d                	li	a3,7
    800007c0:	00d78123          	sb	a3,2(a5)

  // enable transmit and receive interrupts.
  WriteReg(IER, IER_TX_ENABLE | IER_RX_ENABLE);
    800007c4:	00e780a3          	sb	a4,1(a5)

  initlock(&uart_tx_lock, "uart");
    800007c8:	00008597          	auipc	a1,0x8
    800007cc:	89058593          	add	a1,a1,-1904 # 80008058 <digits+0x18>
    800007d0:	00010517          	auipc	a0,0x10
    800007d4:	34850513          	add	a0,a0,840 # 80010b18 <uart_tx_lock>
    800007d8:	00000097          	auipc	ra,0x0
    800007dc:	5d0080e7          	jalr	1488(ra) # 80000da8 <initlock>
}
    800007e0:	60a2                	ld	ra,8(sp)
    800007e2:	6402                	ld	s0,0(sp)
    800007e4:	0141                	add	sp,sp,16
    800007e6:	8082                	ret

00000000800007e8 <uartputc_sync>:
// use interrupts, for use by kernel printf() and
// to echo characters. it spins waiting for the uart's
// output register to be empty.
void
uartputc_sync(int c)
{
    800007e8:	1101                	add	sp,sp,-32
    800007ea:	ec06                	sd	ra,24(sp)
    800007ec:	e822                	sd	s0,16(sp)
    800007ee:	e426                	sd	s1,8(sp)
    800007f0:	1000                	add	s0,sp,32
    800007f2:	84aa                	mv	s1,a0
  push_off();
    800007f4:	00000097          	auipc	ra,0x0
    800007f8:	5f8080e7          	jalr	1528(ra) # 80000dec <push_off>

  if(panicked){
    800007fc:	00008797          	auipc	a5,0x8
    80000800:	0d47a783          	lw	a5,212(a5) # 800088d0 <panicked>
    for(;;)
      ;
  }

  // wait for Transmit Holding Empty to be set in LSR.
  while((ReadReg(LSR) & LSR_TX_IDLE) == 0)
    80000804:	10000737          	lui	a4,0x10000
  if(panicked){
    80000808:	c391                	beqz	a5,8000080c <uartputc_sync+0x24>
    for(;;)
    8000080a:	a001                	j	8000080a <uartputc_sync+0x22>
  while((ReadReg(LSR) & LSR_TX_IDLE) == 0)
    8000080c:	00574783          	lbu	a5,5(a4) # 10000005 <_entry-0x6ffffffb>
    80000810:	0207f793          	and	a5,a5,32
    80000814:	dfe5                	beqz	a5,8000080c <uartputc_sync+0x24>
    ;
  WriteReg(THR, c);
    80000816:	0ff4f513          	zext.b	a0,s1
    8000081a:	100007b7          	lui	a5,0x10000
    8000081e:	00a78023          	sb	a0,0(a5) # 10000000 <_entry-0x70000000>

  pop_off();
    80000822:	00000097          	auipc	ra,0x0
    80000826:	66a080e7          	jalr	1642(ra) # 80000e8c <pop_off>
}
    8000082a:	60e2                	ld	ra,24(sp)
    8000082c:	6442                	ld	s0,16(sp)
    8000082e:	64a2                	ld	s1,8(sp)
    80000830:	6105                	add	sp,sp,32
    80000832:	8082                	ret

0000000080000834 <uartstart>:
// called from both the top- and bottom-half.
void
uartstart()
{
  while(1){
    if(uart_tx_w == uart_tx_r){
    80000834:	00008797          	auipc	a5,0x8
    80000838:	0a47b783          	ld	a5,164(a5) # 800088d8 <uart_tx_r>
    8000083c:	00008717          	auipc	a4,0x8
    80000840:	0a473703          	ld	a4,164(a4) # 800088e0 <uart_tx_w>
    80000844:	06f70a63          	beq	a4,a5,800008b8 <uartstart+0x84>
{
    80000848:	7139                	add	sp,sp,-64
    8000084a:	fc06                	sd	ra,56(sp)
    8000084c:	f822                	sd	s0,48(sp)
    8000084e:	f426                	sd	s1,40(sp)
    80000850:	f04a                	sd	s2,32(sp)
    80000852:	ec4e                	sd	s3,24(sp)
    80000854:	e852                	sd	s4,16(sp)
    80000856:	e456                	sd	s5,8(sp)
    80000858:	0080                	add	s0,sp,64
      // transmit buffer is empty.
      return;
    }
    
    if((ReadReg(LSR) & LSR_TX_IDLE) == 0){
    8000085a:	10000937          	lui	s2,0x10000
      // so we cannot give it another byte.
      // it will interrupt when it's ready for a new byte.
      return;
    }
    
    int c = uart_tx_buf[uart_tx_r % UART_TX_BUF_SIZE];
    8000085e:	00010a17          	auipc	s4,0x10
    80000862:	2baa0a13          	add	s4,s4,698 # 80010b18 <uart_tx_lock>
    uart_tx_r += 1;
    80000866:	00008497          	auipc	s1,0x8
    8000086a:	07248493          	add	s1,s1,114 # 800088d8 <uart_tx_r>
    if(uart_tx_w == uart_tx_r){
    8000086e:	00008997          	auipc	s3,0x8
    80000872:	07298993          	add	s3,s3,114 # 800088e0 <uart_tx_w>
    if((ReadReg(LSR) & LSR_TX_IDLE) == 0){
    80000876:	00594703          	lbu	a4,5(s2) # 10000005 <_entry-0x6ffffffb>
    8000087a:	02077713          	and	a4,a4,32
    8000087e:	c705                	beqz	a4,800008a6 <uartstart+0x72>
    int c = uart_tx_buf[uart_tx_r % UART_TX_BUF_SIZE];
    80000880:	01f7f713          	and	a4,a5,31
    80000884:	9752                	add	a4,a4,s4
    80000886:	01874a83          	lbu	s5,24(a4)
    uart_tx_r += 1;
    8000088a:	0785                	add	a5,a5,1
    8000088c:	e09c                	sd	a5,0(s1)
    
    // maybe uartputc() is waiting for space in the buffer.
    wakeup(&uart_tx_r);
    8000088e:	8526                	mv	a0,s1
    80000890:	00002097          	auipc	ra,0x2
    80000894:	baa080e7          	jalr	-1110(ra) # 8000243a <wakeup>
    
    WriteReg(THR, c);
    80000898:	01590023          	sb	s5,0(s2)
    if(uart_tx_w == uart_tx_r){
    8000089c:	609c                	ld	a5,0(s1)
    8000089e:	0009b703          	ld	a4,0(s3)
    800008a2:	fcf71ae3          	bne	a4,a5,80000876 <uartstart+0x42>
  }
}
    800008a6:	70e2                	ld	ra,56(sp)
    800008a8:	7442                	ld	s0,48(sp)
    800008aa:	74a2                	ld	s1,40(sp)
    800008ac:	7902                	ld	s2,32(sp)
    800008ae:	69e2                	ld	s3,24(sp)
    800008b0:	6a42                	ld	s4,16(sp)
    800008b2:	6aa2                	ld	s5,8(sp)
    800008b4:	6121                	add	sp,sp,64
    800008b6:	8082                	ret
    800008b8:	8082                	ret

00000000800008ba <uartputc>:
{
    800008ba:	7179                	add	sp,sp,-48
    800008bc:	f406                	sd	ra,40(sp)
    800008be:	f022                	sd	s0,32(sp)
    800008c0:	ec26                	sd	s1,24(sp)
    800008c2:	e84a                	sd	s2,16(sp)
    800008c4:	e44e                	sd	s3,8(sp)
    800008c6:	e052                	sd	s4,0(sp)
    800008c8:	1800                	add	s0,sp,48
    800008ca:	8a2a                	mv	s4,a0
  acquire(&uart_tx_lock);
    800008cc:	00010517          	auipc	a0,0x10
    800008d0:	24c50513          	add	a0,a0,588 # 80010b18 <uart_tx_lock>
    800008d4:	00000097          	auipc	ra,0x0
    800008d8:	564080e7          	jalr	1380(ra) # 80000e38 <acquire>
  if(panicked){
    800008dc:	00008797          	auipc	a5,0x8
    800008e0:	ff47a783          	lw	a5,-12(a5) # 800088d0 <panicked>
    800008e4:	e7c9                	bnez	a5,8000096e <uartputc+0xb4>
  while(uart_tx_w == uart_tx_r + UART_TX_BUF_SIZE){
    800008e6:	00008717          	auipc	a4,0x8
    800008ea:	ffa73703          	ld	a4,-6(a4) # 800088e0 <uart_tx_w>
    800008ee:	00008797          	auipc	a5,0x8
    800008f2:	fea7b783          	ld	a5,-22(a5) # 800088d8 <uart_tx_r>
    800008f6:	02078793          	add	a5,a5,32
    sleep(&uart_tx_r, &uart_tx_lock);
    800008fa:	00010997          	auipc	s3,0x10
    800008fe:	21e98993          	add	s3,s3,542 # 80010b18 <uart_tx_lock>
    80000902:	00008497          	auipc	s1,0x8
    80000906:	fd648493          	add	s1,s1,-42 # 800088d8 <uart_tx_r>
  while(uart_tx_w == uart_tx_r + UART_TX_BUF_SIZE){
    8000090a:	00008917          	auipc	s2,0x8
    8000090e:	fd690913          	add	s2,s2,-42 # 800088e0 <uart_tx_w>
    80000912:	00e79f63          	bne	a5,a4,80000930 <uartputc+0x76>
    sleep(&uart_tx_r, &uart_tx_lock);
    80000916:	85ce                	mv	a1,s3
    80000918:	8526                	mv	a0,s1
    8000091a:	00002097          	auipc	ra,0x2
    8000091e:	abc080e7          	jalr	-1348(ra) # 800023d6 <sleep>
  while(uart_tx_w == uart_tx_r + UART_TX_BUF_SIZE){
    80000922:	00093703          	ld	a4,0(s2)
    80000926:	609c                	ld	a5,0(s1)
    80000928:	02078793          	add	a5,a5,32
    8000092c:	fee785e3          	beq	a5,a4,80000916 <uartputc+0x5c>
  uart_tx_buf[uart_tx_w % UART_TX_BUF_SIZE] = c;
    80000930:	00010497          	auipc	s1,0x10
    80000934:	1e848493          	add	s1,s1,488 # 80010b18 <uart_tx_lock>
    80000938:	01f77793          	and	a5,a4,31
    8000093c:	97a6                	add	a5,a5,s1
    8000093e:	01478c23          	sb	s4,24(a5)
  uart_tx_w += 1;
    80000942:	0705                	add	a4,a4,1
    80000944:	00008797          	auipc	a5,0x8
    80000948:	f8e7be23          	sd	a4,-100(a5) # 800088e0 <uart_tx_w>
  uartstart();
    8000094c:	00000097          	auipc	ra,0x0
    80000950:	ee8080e7          	jalr	-280(ra) # 80000834 <uartstart>
  release(&uart_tx_lock);
    80000954:	8526                	mv	a0,s1
    80000956:	00000097          	auipc	ra,0x0
    8000095a:	596080e7          	jalr	1430(ra) # 80000eec <release>
}
    8000095e:	70a2                	ld	ra,40(sp)
    80000960:	7402                	ld	s0,32(sp)
    80000962:	64e2                	ld	s1,24(sp)
    80000964:	6942                	ld	s2,16(sp)
    80000966:	69a2                	ld	s3,8(sp)
    80000968:	6a02                	ld	s4,0(sp)
    8000096a:	6145                	add	sp,sp,48
    8000096c:	8082                	ret
    for(;;)
    8000096e:	a001                	j	8000096e <uartputc+0xb4>

0000000080000970 <uartgetc>:

// read one input character from the UART.
// return -1 if none is waiting.
int
uartgetc(void)
{
    80000970:	1141                	add	sp,sp,-16
    80000972:	e422                	sd	s0,8(sp)
    80000974:	0800                	add	s0,sp,16
  if(ReadReg(LSR) & 0x01){
    80000976:	100007b7          	lui	a5,0x10000
    8000097a:	0057c783          	lbu	a5,5(a5) # 10000005 <_entry-0x6ffffffb>
    8000097e:	8b85                	and	a5,a5,1
    80000980:	cb81                	beqz	a5,80000990 <uartgetc+0x20>
    // input data is ready.
    return ReadReg(RHR);
    80000982:	100007b7          	lui	a5,0x10000
    80000986:	0007c503          	lbu	a0,0(a5) # 10000000 <_entry-0x70000000>
  } else {
    return -1;
  }
}
    8000098a:	6422                	ld	s0,8(sp)
    8000098c:	0141                	add	sp,sp,16
    8000098e:	8082                	ret
    return -1;
    80000990:	557d                	li	a0,-1
    80000992:	bfe5                	j	8000098a <uartgetc+0x1a>

0000000080000994 <uartintr>:
// handle a uart interrupt, raised because input has
// arrived, or the uart is ready for more output, or
// both. called from devintr().
void
uartintr(void)
{
    80000994:	1101                	add	sp,sp,-32
    80000996:	ec06                	sd	ra,24(sp)
    80000998:	e822                	sd	s0,16(sp)
    8000099a:	e426                	sd	s1,8(sp)
    8000099c:	1000                	add	s0,sp,32
  // read and process incoming characters.
  while(1){
    int c = uartgetc();
    if(c == -1)
    8000099e:	54fd                	li	s1,-1
    800009a0:	a029                	j	800009aa <uartintr+0x16>
      break;
    consoleintr(c);
    800009a2:	00000097          	auipc	ra,0x0
    800009a6:	918080e7          	jalr	-1768(ra) # 800002ba <consoleintr>
    int c = uartgetc();
    800009aa:	00000097          	auipc	ra,0x0
    800009ae:	fc6080e7          	jalr	-58(ra) # 80000970 <uartgetc>
    if(c == -1)
    800009b2:	fe9518e3          	bne	a0,s1,800009a2 <uartintr+0xe>
  }

  // send buffered characters.
  acquire(&uart_tx_lock);
    800009b6:	00010497          	auipc	s1,0x10
    800009ba:	16248493          	add	s1,s1,354 # 80010b18 <uart_tx_lock>
    800009be:	8526                	mv	a0,s1
    800009c0:	00000097          	auipc	ra,0x0
    800009c4:	478080e7          	jalr	1144(ra) # 80000e38 <acquire>
  uartstart();
    800009c8:	00000097          	auipc	ra,0x0
    800009cc:	e6c080e7          	jalr	-404(ra) # 80000834 <uartstart>
  release(&uart_tx_lock);
    800009d0:	8526                	mv	a0,s1
    800009d2:	00000097          	auipc	ra,0x0
    800009d6:	51a080e7          	jalr	1306(ra) # 80000eec <release>
}
    800009da:	60e2                	ld	ra,24(sp)
    800009dc:	6442                	ld	s0,16(sp)
    800009de:	64a2                	ld	s1,8(sp)
    800009e0:	6105                	add	sp,sp,32
    800009e2:	8082                	ret

00000000800009e4 <kfree>:
// which normally should have been returned by a
// call to kalloc().  (The exception is when
// initializing the allocator; see kinit above.)
void
kfree(void *pa)
{
    800009e4:	1101                	add	sp,sp,-32
    800009e6:	ec06                	sd	ra,24(sp)
    800009e8:	e822                	sd	s0,16(sp)
    800009ea:	e426                	sd	s1,8(sp)
    800009ec:	e04a                	sd	s2,0(sp)
    800009ee:	1000                	add	s0,sp,32
  struct run *r;

  int ref = PA2REF(pa);
    800009f0:	800007b7          	lui	a5,0x80000
    800009f4:	97aa                	add	a5,a5,a0
    800009f6:	83b1                	srl	a5,a5,0xc
    800009f8:	0007849b          	sext.w	s1,a5
  if(((uint64)pa % PGSIZE) != 0 || (char*)pa < end || (uint64)pa >= PHYSTOP)
    800009fc:	03451793          	sll	a5,a0,0x34
    80000a00:	ebd9                	bnez	a5,80000a96 <kfree+0xb2>
    80000a02:	892a                	mv	s2,a0
    80000a04:	00042797          	auipc	a5,0x42
    80000a08:	d9478793          	add	a5,a5,-620 # 80042798 <end>
    80000a0c:	08f56563          	bltu	a0,a5,80000a96 <kfree+0xb2>
    80000a10:	47c5                	li	a5,17
    80000a12:	07ee                	sll	a5,a5,0x1b
    80000a14:	08f57163          	bgeu	a0,a5,80000a96 <kfree+0xb2>
    panic("kfree");

  acquire(&Ref.lock);
    80000a18:	00010517          	auipc	a0,0x10
    80000a1c:	15850513          	add	a0,a0,344 # 80010b70 <Ref>
    80000a20:	00000097          	auipc	ra,0x0
    80000a24:	418080e7          	jalr	1048(ra) # 80000e38 <acquire>
  if(--Ref.references[ref] > 0){
    80000a28:	00448793          	add	a5,s1,4
    80000a2c:	078a                	sll	a5,a5,0x2
    80000a2e:	00010717          	auipc	a4,0x10
    80000a32:	14270713          	add	a4,a4,322 # 80010b70 <Ref>
    80000a36:	97ba                	add	a5,a5,a4
    80000a38:	4798                	lw	a4,8(a5)
    80000a3a:	377d                	addw	a4,a4,-1
    80000a3c:	0007069b          	sext.w	a3,a4
    80000a40:	c798                	sw	a4,8(a5)
    80000a42:	06d04263          	bgtz	a3,80000aa6 <kfree+0xc2>
    release(&Ref.lock);
    return;
  }
  release(&Ref.lock);
    80000a46:	00010517          	auipc	a0,0x10
    80000a4a:	12a50513          	add	a0,a0,298 # 80010b70 <Ref>
    80000a4e:	00000097          	auipc	ra,0x0
    80000a52:	49e080e7          	jalr	1182(ra) # 80000eec <release>

  memset(pa, 1, PGSIZE);   // Fill with junk to catch dangling refs.
    80000a56:	6605                	lui	a2,0x1
    80000a58:	4585                	li	a1,1
    80000a5a:	854a                	mv	a0,s2
    80000a5c:	00000097          	auipc	ra,0x0
    80000a60:	4d8080e7          	jalr	1240(ra) # 80000f34 <memset>
  r = (struct run*)pa;

  acquire(&kmem.lock);
    80000a64:	00010497          	auipc	s1,0x10
    80000a68:	0ec48493          	add	s1,s1,236 # 80010b50 <kmem>
    80000a6c:	8526                	mv	a0,s1
    80000a6e:	00000097          	auipc	ra,0x0
    80000a72:	3ca080e7          	jalr	970(ra) # 80000e38 <acquire>

  r->next = kmem.freelist;
    80000a76:	6c9c                	ld	a5,24(s1)
    80000a78:	00f93023          	sd	a5,0(s2)
  kmem.freelist = r;
    80000a7c:	0124bc23          	sd	s2,24(s1)

  release(&kmem.lock);
    80000a80:	8526                	mv	a0,s1
    80000a82:	00000097          	auipc	ra,0x0
    80000a86:	46a080e7          	jalr	1130(ra) # 80000eec <release>
}
    80000a8a:	60e2                	ld	ra,24(sp)
    80000a8c:	6442                	ld	s0,16(sp)
    80000a8e:	64a2                	ld	s1,8(sp)
    80000a90:	6902                	ld	s2,0(sp)
    80000a92:	6105                	add	sp,sp,32
    80000a94:	8082                	ret
    panic("kfree");
    80000a96:	00007517          	auipc	a0,0x7
    80000a9a:	5ca50513          	add	a0,a0,1482 # 80008060 <digits+0x20>
    80000a9e:	00000097          	auipc	ra,0x0
    80000aa2:	a9e080e7          	jalr	-1378(ra) # 8000053c <panic>
    release(&Ref.lock);
    80000aa6:	00010517          	auipc	a0,0x10
    80000aaa:	0ca50513          	add	a0,a0,202 # 80010b70 <Ref>
    80000aae:	00000097          	auipc	ra,0x0
    80000ab2:	43e080e7          	jalr	1086(ra) # 80000eec <release>
    return;
    80000ab6:	bfd1                	j	80000a8a <kfree+0xa6>

0000000080000ab8 <freerange>:
{
    80000ab8:	7179                	add	sp,sp,-48
    80000aba:	f406                	sd	ra,40(sp)
    80000abc:	f022                	sd	s0,32(sp)
    80000abe:	ec26                	sd	s1,24(sp)
    80000ac0:	e84a                	sd	s2,16(sp)
    80000ac2:	e44e                	sd	s3,8(sp)
    80000ac4:	e052                	sd	s4,0(sp)
    80000ac6:	1800                	add	s0,sp,48
  p = (char*)PGROUNDUP((uint64)pa_start);
    80000ac8:	6785                	lui	a5,0x1
    80000aca:	fff78713          	add	a4,a5,-1 # fff <_entry-0x7ffff001>
    80000ace:	00e504b3          	add	s1,a0,a4
    80000ad2:	777d                	lui	a4,0xfffff
    80000ad4:	8cf9                	and	s1,s1,a4
  for(; p + PGSIZE <= (char*)pa_end; p += PGSIZE){
    80000ad6:	94be                	add	s1,s1,a5
    80000ad8:	0095ee63          	bltu	a1,s1,80000af4 <freerange+0x3c>
    80000adc:	892e                	mv	s2,a1
    kfree(p);
    80000ade:	7a7d                	lui	s4,0xfffff
  for(; p + PGSIZE <= (char*)pa_end; p += PGSIZE){
    80000ae0:	6985                	lui	s3,0x1
    kfree(p);
    80000ae2:	01448533          	add	a0,s1,s4
    80000ae6:	00000097          	auipc	ra,0x0
    80000aea:	efe080e7          	jalr	-258(ra) # 800009e4 <kfree>
  for(; p + PGSIZE <= (char*)pa_end; p += PGSIZE){
    80000aee:	94ce                	add	s1,s1,s3
    80000af0:	fe9979e3          	bgeu	s2,s1,80000ae2 <freerange+0x2a>
}
    80000af4:	70a2                	ld	ra,40(sp)
    80000af6:	7402                	ld	s0,32(sp)
    80000af8:	64e2                	ld	s1,24(sp)
    80000afa:	6942                	ld	s2,16(sp)
    80000afc:	69a2                	ld	s3,8(sp)
    80000afe:	6a02                	ld	s4,0(sp)
    80000b00:	6145                	add	sp,sp,48
    80000b02:	8082                	ret

0000000080000b04 <kinit>:
{
    80000b04:	1141                	add	sp,sp,-16
    80000b06:	e406                	sd	ra,8(sp)
    80000b08:	e022                	sd	s0,0(sp)
    80000b0a:	0800                	add	s0,sp,16
  initlock(&kmem.lock, "kmem");
    80000b0c:	00007597          	auipc	a1,0x7
    80000b10:	55c58593          	add	a1,a1,1372 # 80008068 <digits+0x28>
    80000b14:	00010517          	auipc	a0,0x10
    80000b18:	03c50513          	add	a0,a0,60 # 80010b50 <kmem>
    80000b1c:	00000097          	auipc	ra,0x0
    80000b20:	28c080e7          	jalr	652(ra) # 80000da8 <initlock>
  initlock(&Ref.lock, "Ref");
    80000b24:	00007597          	auipc	a1,0x7
    80000b28:	54c58593          	add	a1,a1,1356 # 80008070 <digits+0x30>
    80000b2c:	00010517          	auipc	a0,0x10
    80000b30:	04450513          	add	a0,a0,68 # 80010b70 <Ref>
    80000b34:	00000097          	auipc	ra,0x0
    80000b38:	274080e7          	jalr	628(ra) # 80000da8 <initlock>
  freerange(end, (void*)PHYSTOP);
    80000b3c:	45c5                	li	a1,17
    80000b3e:	05ee                	sll	a1,a1,0x1b
    80000b40:	00042517          	auipc	a0,0x42
    80000b44:	c5850513          	add	a0,a0,-936 # 80042798 <end>
    80000b48:	00000097          	auipc	ra,0x0
    80000b4c:	f70080e7          	jalr	-144(ra) # 80000ab8 <freerange>
}
    80000b50:	60a2                	ld	ra,8(sp)
    80000b52:	6402                	ld	s0,0(sp)
    80000b54:	0141                	add	sp,sp,16
    80000b56:	8082                	ret

0000000080000b58 <kalloc>:
// Allocate one 4096-byte page of physical memory.
// Returns a pointer that the kernel can use.
// Returns 0 if the memory cannot be allocated.
void *
kalloc(void)
{
    80000b58:	1101                	add	sp,sp,-32
    80000b5a:	ec06                	sd	ra,24(sp)
    80000b5c:	e822                	sd	s0,16(sp)
    80000b5e:	e426                	sd	s1,8(sp)
    80000b60:	1000                	add	s0,sp,32
  struct run *r;

  acquire(&kmem.lock);
    80000b62:	00010497          	auipc	s1,0x10
    80000b66:	fee48493          	add	s1,s1,-18 # 80010b50 <kmem>
    80000b6a:	8526                	mv	a0,s1
    80000b6c:	00000097          	auipc	ra,0x0
    80000b70:	2cc080e7          	jalr	716(ra) # 80000e38 <acquire>
  r = kmem.freelist;
    80000b74:	6c84                	ld	s1,24(s1)
  if(r)
    80000b76:	c4b1                	beqz	s1,80000bc2 <kalloc+0x6a>
    kmem.freelist = r->next;
    80000b78:	609c                	ld	a5,0(s1)
    80000b7a:	00010517          	auipc	a0,0x10
    80000b7e:	fd650513          	add	a0,a0,-42 # 80010b50 <kmem>
    80000b82:	ed1c                	sd	a5,24(a0)
  release(&kmem.lock);
    80000b84:	00000097          	auipc	ra,0x0
    80000b88:	368080e7          	jalr	872(ra) # 80000eec <release>

  if(r){
    memset((char*)r, 69, PGSIZE); // fill with junk
    80000b8c:	6605                	lui	a2,0x1
    80000b8e:	04500593          	li	a1,69
    80000b92:	8526                	mv	a0,s1
    80000b94:	00000097          	auipc	ra,0x0
    80000b98:	3a0080e7          	jalr	928(ra) # 80000f34 <memset>
    Ref.references[PA2REF((uint64)r)] = 1;
    80000b9c:	800007b7          	lui	a5,0x80000
    80000ba0:	97a6                	add	a5,a5,s1
    80000ba2:	83b1                	srl	a5,a5,0xc
    80000ba4:	0791                	add	a5,a5,4 # ffffffff80000004 <end+0xfffffffefffbd86c>
    80000ba6:	078a                	sll	a5,a5,0x2
    80000ba8:	00010717          	auipc	a4,0x10
    80000bac:	fc870713          	add	a4,a4,-56 # 80010b70 <Ref>
    80000bb0:	97ba                	add	a5,a5,a4
    80000bb2:	4705                	li	a4,1
    80000bb4:	c798                	sw	a4,8(a5)
  }
  return (void*)r;
}
    80000bb6:	8526                	mv	a0,s1
    80000bb8:	60e2                	ld	ra,24(sp)
    80000bba:	6442                	ld	s0,16(sp)
    80000bbc:	64a2                	ld	s1,8(sp)
    80000bbe:	6105                	add	sp,sp,32
    80000bc0:	8082                	ret
  release(&kmem.lock);
    80000bc2:	00010517          	auipc	a0,0x10
    80000bc6:	f8e50513          	add	a0,a0,-114 # 80010b50 <kmem>
    80000bca:	00000097          	auipc	ra,0x0
    80000bce:	322080e7          	jalr	802(ra) # 80000eec <release>
  if(r){
    80000bd2:	b7d5                	j	80000bb6 <kalloc+0x5e>

0000000080000bd4 <addReference>:

void addReference(void* pa){
  int ref = PA2REF(pa);
    80000bd4:	800007b7          	lui	a5,0x80000
    80000bd8:	953e                	add	a0,a0,a5
    80000bda:	8131                	srl	a0,a0,0xc
  if(ref < 0 || ref >= MAXREF)
    80000bdc:	0005071b          	sext.w	a4,a0
    80000be0:	67a1                	lui	a5,0x8
    80000be2:	00f76363          	bltu	a4,a5,80000be8 <addReference+0x14>
    80000be6:	8082                	ret
void addReference(void* pa){
    80000be8:	1101                	add	sp,sp,-32
    80000bea:	ec06                	sd	ra,24(sp)
    80000bec:	e822                	sd	s0,16(sp)
    80000bee:	e426                	sd	s1,8(sp)
    80000bf0:	1000                	add	s0,sp,32
  int ref = PA2REF(pa);
    80000bf2:	84ba                	mv	s1,a4
    return;
  acquire(&Ref.lock);
    80000bf4:	00010517          	auipc	a0,0x10
    80000bf8:	f7c50513          	add	a0,a0,-132 # 80010b70 <Ref>
    80000bfc:	00000097          	auipc	ra,0x0
    80000c00:	23c080e7          	jalr	572(ra) # 80000e38 <acquire>
  Ref.references[ref]++;
    80000c04:	00010517          	auipc	a0,0x10
    80000c08:	f6c50513          	add	a0,a0,-148 # 80010b70 <Ref>
    80000c0c:	00448793          	add	a5,s1,4
    80000c10:	078a                	sll	a5,a5,0x2
    80000c12:	97aa                	add	a5,a5,a0
    80000c14:	4798                	lw	a4,8(a5)
    80000c16:	2705                	addw	a4,a4,1
    80000c18:	c798                	sw	a4,8(a5)
  release(&Ref.lock);
    80000c1a:	00000097          	auipc	ra,0x0
    80000c1e:	2d2080e7          	jalr	722(ra) # 80000eec <release>
}
    80000c22:	60e2                	ld	ra,24(sp)
    80000c24:	6442                	ld	s0,16(sp)
    80000c26:	64a2                	ld	s1,8(sp)
    80000c28:	6105                	add	sp,sp,32
    80000c2a:	8082                	ret

0000000080000c2c <copyndecref>:

// Copy the page to another memory address and decrease reference count
void* copyndecref(void* pa){
    80000c2c:	1101                	add	sp,sp,-32
    80000c2e:	ec06                	sd	ra,24(sp)
    80000c30:	e822                	sd	s0,16(sp)
    80000c32:	e426                	sd	s1,8(sp)
    80000c34:	e04a                	sd	s2,0(sp)
    80000c36:	1000                	add	s0,sp,32
  int ref = PA2REF(pa);
    80000c38:	800007b7          	lui	a5,0x80000
    80000c3c:	97aa                	add	a5,a5,a0
    80000c3e:	83b1                	srl	a5,a5,0xc
  if(ref < 0 || ref >= MAXREF)
    80000c40:	0007869b          	sext.w	a3,a5
    80000c44:	6721                	lui	a4,0x8
    return 0;
    80000c46:	4481                	li	s1,0
  if(ref < 0 || ref >= MAXREF)
    80000c48:	06e6f663          	bgeu	a3,a4,80000cb4 <copyndecref+0x88>
    80000c4c:	892a                	mv	s2,a0
  int ref = PA2REF(pa);
    80000c4e:	84b6                	mv	s1,a3

  acquire(&Ref.lock);
    80000c50:	00010517          	auipc	a0,0x10
    80000c54:	f2050513          	add	a0,a0,-224 # 80010b70 <Ref>
    80000c58:	00000097          	auipc	ra,0x0
    80000c5c:	1e0080e7          	jalr	480(ra) # 80000e38 <acquire>
  if(Ref.references[ref] <= 1){
    80000c60:	00448713          	add	a4,s1,4
    80000c64:	070a                	sll	a4,a4,0x2
    80000c66:	00010797          	auipc	a5,0x10
    80000c6a:	f0a78793          	add	a5,a5,-246 # 80010b70 <Ref>
    80000c6e:	97ba                	add	a5,a5,a4
    80000c70:	4798                	lw	a4,8(a5)
    80000c72:	4785                	li	a5,1
    80000c74:	04e7d763          	bge	a5,a4,80000cc2 <copyndecref+0x96>
    release(&Ref.lock);
    return pa;
  }
  
  Ref.references[ref]--;
    80000c78:	00448793          	add	a5,s1,4
    80000c7c:	078a                	sll	a5,a5,0x2
    80000c7e:	00010697          	auipc	a3,0x10
    80000c82:	ef268693          	add	a3,a3,-270 # 80010b70 <Ref>
    80000c86:	97b6                	add	a5,a5,a3
    80000c88:	377d                	addw	a4,a4,-1 # 7fff <_entry-0x7fff8001>
    80000c8a:	c798                	sw	a4,8(a5)
  
  uint64 mem = (uint64)kalloc();
    80000c8c:	00000097          	auipc	ra,0x0
    80000c90:	ecc080e7          	jalr	-308(ra) # 80000b58 <kalloc>
    80000c94:	84aa                	mv	s1,a0
  if(mem == 0){
    80000c96:	c121                	beqz	a0,80000cd6 <copyndecref+0xaa>
    release(&Ref.lock);
    return 0;
  }
  memmove((void*)mem,(void*)pa, PGSIZE);
    80000c98:	6605                	lui	a2,0x1
    80000c9a:	85ca                	mv	a1,s2
    80000c9c:	00000097          	auipc	ra,0x0
    80000ca0:	2f4080e7          	jalr	756(ra) # 80000f90 <memmove>
  release(&Ref.lock);
    80000ca4:	00010517          	auipc	a0,0x10
    80000ca8:	ecc50513          	add	a0,a0,-308 # 80010b70 <Ref>
    80000cac:	00000097          	auipc	ra,0x0
    80000cb0:	240080e7          	jalr	576(ra) # 80000eec <release>
  return (void*)mem;
}
    80000cb4:	8526                	mv	a0,s1
    80000cb6:	60e2                	ld	ra,24(sp)
    80000cb8:	6442                	ld	s0,16(sp)
    80000cba:	64a2                	ld	s1,8(sp)
    80000cbc:	6902                	ld	s2,0(sp)
    80000cbe:	6105                	add	sp,sp,32
    80000cc0:	8082                	ret
    release(&Ref.lock);
    80000cc2:	00010517          	auipc	a0,0x10
    80000cc6:	eae50513          	add	a0,a0,-338 # 80010b70 <Ref>
    80000cca:	00000097          	auipc	ra,0x0
    80000cce:	222080e7          	jalr	546(ra) # 80000eec <release>
    return pa;
    80000cd2:	84ca                	mv	s1,s2
    80000cd4:	b7c5                	j	80000cb4 <copyndecref+0x88>
    release(&Ref.lock);
    80000cd6:	00010517          	auipc	a0,0x10
    80000cda:	e9a50513          	add	a0,a0,-358 # 80010b70 <Ref>
    80000cde:	00000097          	auipc	ra,0x0
    80000ce2:	20e080e7          	jalr	526(ra) # 80000eec <release>
    return 0;
    80000ce6:	b7f9                	j	80000cb4 <copyndecref+0x88>

0000000080000ce8 <pagefhandler>:

int pagefhandler(pagetable_t pagetable,uint64 va){
  if(va >= MAXVA || va <= 0)
    80000ce8:	fff58713          	add	a4,a1,-1
    80000cec:	f80007b7          	lui	a5,0xf8000
    80000cf0:	83e9                	srl	a5,a5,0x1a
    80000cf2:	0ae7e163          	bltu	a5,a4,80000d94 <pagefhandler+0xac>
int pagefhandler(pagetable_t pagetable,uint64 va){
    80000cf6:	7179                	add	sp,sp,-48
    80000cf8:	f406                	sd	ra,40(sp)
    80000cfa:	f022                	sd	s0,32(sp)
    80000cfc:	ec26                	sd	s1,24(sp)
    80000cfe:	e84a                	sd	s2,16(sp)
    80000d00:	e44e                	sd	s3,8(sp)
    80000d02:	e052                	sd	s4,0(sp)
    80000d04:	1800                	add	s0,sp,48
    80000d06:	892a                	mv	s2,a0
    80000d08:	84ae                	mv	s1,a1
    return -1;

  pte_t *pte = walk(pagetable,va,0);
    80000d0a:	4601                	li	a2,0
    80000d0c:	00000097          	auipc	ra,0x0
    80000d10:	50a080e7          	jalr	1290(ra) # 80001216 <walk>
    80000d14:	89aa                	mv	s3,a0
  if(pte == 0){
    80000d16:	c149                	beqz	a0,80000d98 <pagefhandler+0xb0>
    return -1;
  }
  if(!(*pte & PTE_V)){
    80000d18:	6108                	ld	a0,0(a0)
    return -1;
  }
  if(!(*pte & PTE_U)){
    80000d1a:	01157713          	and	a4,a0,17
    80000d1e:	47c5                	li	a5,17
    80000d20:	06f71e63          	bne	a4,a5,80000d9c <pagefhandler+0xb4>
    return -1;
  }
  if(!(*pte & PTE_COW)){
    80000d24:	02057793          	and	a5,a0,32
    80000d28:	cfa5                	beqz	a5,80000da0 <pagefhandler+0xb8>
    return -1;
  }
  uint64 pa = PTE2PA(*pte);
    80000d2a:	8129                	srl	a0,a0,0xa
  void* mem = copyndecref((void*)pa);
    80000d2c:	0532                	sll	a0,a0,0xc
    80000d2e:	00000097          	auipc	ra,0x0
    80000d32:	efe080e7          	jalr	-258(ra) # 80000c2c <copyndecref>
    80000d36:	8a2a                	mv	s4,a0

  if(mem == 0)
    80000d38:	c535                	beqz	a0,80000da4 <pagefhandler+0xbc>
    return -1;

  uint64 flags = (PTE_FLAGS(*pte) | PTE_W) & ~PTE_COW;
    80000d3a:	0009b983          	ld	s3,0(s3) # 1000 <_entry-0x7ffff000>
    80000d3e:	3db9f993          	and	s3,s3,987
    80000d42:	0049e993          	or	s3,s3,4
  uvmunmap(pagetable,PGROUNDDOWN(va),1,0);
    80000d46:	4681                	li	a3,0
    80000d48:	4605                	li	a2,1
    80000d4a:	75fd                	lui	a1,0xfffff
    80000d4c:	8de5                	and	a1,a1,s1
    80000d4e:	854a                	mv	a0,s2
    80000d50:	00000097          	auipc	ra,0x0
    80000d54:	774080e7          	jalr	1908(ra) # 800014c4 <uvmunmap>
  if(mappages(pagetable,va,1,(uint64)mem,flags) == -1){
    80000d58:	874e                	mv	a4,s3
    80000d5a:	86d2                	mv	a3,s4
    80000d5c:	4605                	li	a2,1
    80000d5e:	85a6                	mv	a1,s1
    80000d60:	854a                	mv	a0,s2
    80000d62:	00000097          	auipc	ra,0x0
    80000d66:	59c080e7          	jalr	1436(ra) # 800012fe <mappages>
    80000d6a:	872a                	mv	a4,a0
    80000d6c:	57fd                	li	a5,-1
    panic("Pagefhandler mappages");
  }

  return 0;
    80000d6e:	4501                	li	a0,0
  if(mappages(pagetable,va,1,(uint64)mem,flags) == -1){
    80000d70:	00f70a63          	beq	a4,a5,80000d84 <pagefhandler+0x9c>
    80000d74:	70a2                	ld	ra,40(sp)
    80000d76:	7402                	ld	s0,32(sp)
    80000d78:	64e2                	ld	s1,24(sp)
    80000d7a:	6942                	ld	s2,16(sp)
    80000d7c:	69a2                	ld	s3,8(sp)
    80000d7e:	6a02                	ld	s4,0(sp)
    80000d80:	6145                	add	sp,sp,48
    80000d82:	8082                	ret
    panic("Pagefhandler mappages");
    80000d84:	00007517          	auipc	a0,0x7
    80000d88:	2f450513          	add	a0,a0,756 # 80008078 <digits+0x38>
    80000d8c:	fffff097          	auipc	ra,0xfffff
    80000d90:	7b0080e7          	jalr	1968(ra) # 8000053c <panic>
    return -1;
    80000d94:	557d                	li	a0,-1
    80000d96:	8082                	ret
    return -1;
    80000d98:	557d                	li	a0,-1
    80000d9a:	bfe9                	j	80000d74 <pagefhandler+0x8c>
    return -1;
    80000d9c:	557d                	li	a0,-1
    80000d9e:	bfd9                	j	80000d74 <pagefhandler+0x8c>
    return -1;
    80000da0:	557d                	li	a0,-1
    80000da2:	bfc9                	j	80000d74 <pagefhandler+0x8c>
    return -1;
    80000da4:	557d                	li	a0,-1
    80000da6:	b7f9                	j	80000d74 <pagefhandler+0x8c>

0000000080000da8 <initlock>:
#include "proc.h"
#include "defs.h"

void
initlock(struct spinlock *lk, char *name)
{
    80000da8:	1141                	add	sp,sp,-16
    80000daa:	e422                	sd	s0,8(sp)
    80000dac:	0800                	add	s0,sp,16
  lk->name = name;
    80000dae:	e50c                	sd	a1,8(a0)
  lk->locked = 0;
    80000db0:	00052023          	sw	zero,0(a0)
  lk->cpu = 0;
    80000db4:	00053823          	sd	zero,16(a0)
}
    80000db8:	6422                	ld	s0,8(sp)
    80000dba:	0141                	add	sp,sp,16
    80000dbc:	8082                	ret

0000000080000dbe <holding>:
// Interrupts must be off.
int
holding(struct spinlock *lk)
{
  int r;
  r = (lk->locked && lk->cpu == mycpu());
    80000dbe:	411c                	lw	a5,0(a0)
    80000dc0:	e399                	bnez	a5,80000dc6 <holding+0x8>
    80000dc2:	4501                	li	a0,0
  return r;
}
    80000dc4:	8082                	ret
{
    80000dc6:	1101                	add	sp,sp,-32
    80000dc8:	ec06                	sd	ra,24(sp)
    80000dca:	e822                	sd	s0,16(sp)
    80000dcc:	e426                	sd	s1,8(sp)
    80000dce:	1000                	add	s0,sp,32
  r = (lk->locked && lk->cpu == mycpu());
    80000dd0:	6904                	ld	s1,16(a0)
    80000dd2:	00001097          	auipc	ra,0x1
    80000dd6:	e16080e7          	jalr	-490(ra) # 80001be8 <mycpu>
    80000dda:	40a48533          	sub	a0,s1,a0
    80000dde:	00153513          	seqz	a0,a0
}
    80000de2:	60e2                	ld	ra,24(sp)
    80000de4:	6442                	ld	s0,16(sp)
    80000de6:	64a2                	ld	s1,8(sp)
    80000de8:	6105                	add	sp,sp,32
    80000dea:	8082                	ret

0000000080000dec <push_off>:
// it takes two pop_off()s to undo two push_off()s.  Also, if interrupts
// are initially off, then push_off, pop_off leaves them off.

void
push_off(void)
{
    80000dec:	1101                	add	sp,sp,-32
    80000dee:	ec06                	sd	ra,24(sp)
    80000df0:	e822                	sd	s0,16(sp)
    80000df2:	e426                	sd	s1,8(sp)
    80000df4:	1000                	add	s0,sp,32
  asm volatile("csrr %0, sstatus" : "=r" (x) );
    80000df6:	100024f3          	csrr	s1,sstatus
    80000dfa:	100027f3          	csrr	a5,sstatus
  w_sstatus(r_sstatus() & ~SSTATUS_SIE);
    80000dfe:	9bf5                	and	a5,a5,-3
  asm volatile("csrw sstatus, %0" : : "r" (x));
    80000e00:	10079073          	csrw	sstatus,a5
  int old = intr_get();

  intr_off();
  if(mycpu()->noff == 0)
    80000e04:	00001097          	auipc	ra,0x1
    80000e08:	de4080e7          	jalr	-540(ra) # 80001be8 <mycpu>
    80000e0c:	5d3c                	lw	a5,120(a0)
    80000e0e:	cf89                	beqz	a5,80000e28 <push_off+0x3c>
    mycpu()->intena = old;
  mycpu()->noff += 1;
    80000e10:	00001097          	auipc	ra,0x1
    80000e14:	dd8080e7          	jalr	-552(ra) # 80001be8 <mycpu>
    80000e18:	5d3c                	lw	a5,120(a0)
    80000e1a:	2785                	addw	a5,a5,1 # fffffffff8000001 <end+0xffffffff77fbd869>
    80000e1c:	dd3c                	sw	a5,120(a0)
}
    80000e1e:	60e2                	ld	ra,24(sp)
    80000e20:	6442                	ld	s0,16(sp)
    80000e22:	64a2                	ld	s1,8(sp)
    80000e24:	6105                	add	sp,sp,32
    80000e26:	8082                	ret
    mycpu()->intena = old;
    80000e28:	00001097          	auipc	ra,0x1
    80000e2c:	dc0080e7          	jalr	-576(ra) # 80001be8 <mycpu>
  return (x & SSTATUS_SIE) != 0;
    80000e30:	8085                	srl	s1,s1,0x1
    80000e32:	8885                	and	s1,s1,1
    80000e34:	dd64                	sw	s1,124(a0)
    80000e36:	bfe9                	j	80000e10 <push_off+0x24>

0000000080000e38 <acquire>:
{
    80000e38:	1101                	add	sp,sp,-32
    80000e3a:	ec06                	sd	ra,24(sp)
    80000e3c:	e822                	sd	s0,16(sp)
    80000e3e:	e426                	sd	s1,8(sp)
    80000e40:	1000                	add	s0,sp,32
    80000e42:	84aa                	mv	s1,a0
  push_off(); // disable interrupts to avoid deadlock.
    80000e44:	00000097          	auipc	ra,0x0
    80000e48:	fa8080e7          	jalr	-88(ra) # 80000dec <push_off>
  if(holding(lk))
    80000e4c:	8526                	mv	a0,s1
    80000e4e:	00000097          	auipc	ra,0x0
    80000e52:	f70080e7          	jalr	-144(ra) # 80000dbe <holding>
  while(__sync_lock_test_and_set(&lk->locked, 1) != 0)
    80000e56:	4705                	li	a4,1
  if(holding(lk))
    80000e58:	e115                	bnez	a0,80000e7c <acquire+0x44>
  while(__sync_lock_test_and_set(&lk->locked, 1) != 0)
    80000e5a:	87ba                	mv	a5,a4
    80000e5c:	0cf4a7af          	amoswap.w.aq	a5,a5,(s1)
    80000e60:	2781                	sext.w	a5,a5
    80000e62:	ffe5                	bnez	a5,80000e5a <acquire+0x22>
  __sync_synchronize();
    80000e64:	0ff0000f          	fence
  lk->cpu = mycpu();
    80000e68:	00001097          	auipc	ra,0x1
    80000e6c:	d80080e7          	jalr	-640(ra) # 80001be8 <mycpu>
    80000e70:	e888                	sd	a0,16(s1)
}
    80000e72:	60e2                	ld	ra,24(sp)
    80000e74:	6442                	ld	s0,16(sp)
    80000e76:	64a2                	ld	s1,8(sp)
    80000e78:	6105                	add	sp,sp,32
    80000e7a:	8082                	ret
    panic("acquire");
    80000e7c:	00007517          	auipc	a0,0x7
    80000e80:	21450513          	add	a0,a0,532 # 80008090 <digits+0x50>
    80000e84:	fffff097          	auipc	ra,0xfffff
    80000e88:	6b8080e7          	jalr	1720(ra) # 8000053c <panic>

0000000080000e8c <pop_off>:

void
pop_off(void)
{
    80000e8c:	1141                	add	sp,sp,-16
    80000e8e:	e406                	sd	ra,8(sp)
    80000e90:	e022                	sd	s0,0(sp)
    80000e92:	0800                	add	s0,sp,16
  struct cpu *c = mycpu();
    80000e94:	00001097          	auipc	ra,0x1
    80000e98:	d54080e7          	jalr	-684(ra) # 80001be8 <mycpu>
  asm volatile("csrr %0, sstatus" : "=r" (x) );
    80000e9c:	100027f3          	csrr	a5,sstatus
  return (x & SSTATUS_SIE) != 0;
    80000ea0:	8b89                	and	a5,a5,2
  if(intr_get())
    80000ea2:	e78d                	bnez	a5,80000ecc <pop_off+0x40>
    panic("pop_off - interruptible");
  if(c->noff < 1)
    80000ea4:	5d3c                	lw	a5,120(a0)
    80000ea6:	02f05b63          	blez	a5,80000edc <pop_off+0x50>
    panic("pop_off");
  c->noff -= 1;
    80000eaa:	37fd                	addw	a5,a5,-1
    80000eac:	0007871b          	sext.w	a4,a5
    80000eb0:	dd3c                	sw	a5,120(a0)
  if(c->noff == 0 && c->intena)
    80000eb2:	eb09                	bnez	a4,80000ec4 <pop_off+0x38>
    80000eb4:	5d7c                	lw	a5,124(a0)
    80000eb6:	c799                	beqz	a5,80000ec4 <pop_off+0x38>
  asm volatile("csrr %0, sstatus" : "=r" (x) );
    80000eb8:	100027f3          	csrr	a5,sstatus
  w_sstatus(r_sstatus() | SSTATUS_SIE);
    80000ebc:	0027e793          	or	a5,a5,2
  asm volatile("csrw sstatus, %0" : : "r" (x));
    80000ec0:	10079073          	csrw	sstatus,a5
    intr_on();
}
    80000ec4:	60a2                	ld	ra,8(sp)
    80000ec6:	6402                	ld	s0,0(sp)
    80000ec8:	0141                	add	sp,sp,16
    80000eca:	8082                	ret
    panic("pop_off - interruptible");
    80000ecc:	00007517          	auipc	a0,0x7
    80000ed0:	1cc50513          	add	a0,a0,460 # 80008098 <digits+0x58>
    80000ed4:	fffff097          	auipc	ra,0xfffff
    80000ed8:	668080e7          	jalr	1640(ra) # 8000053c <panic>
    panic("pop_off");
    80000edc:	00007517          	auipc	a0,0x7
    80000ee0:	1d450513          	add	a0,a0,468 # 800080b0 <digits+0x70>
    80000ee4:	fffff097          	auipc	ra,0xfffff
    80000ee8:	658080e7          	jalr	1624(ra) # 8000053c <panic>

0000000080000eec <release>:
{
    80000eec:	1101                	add	sp,sp,-32
    80000eee:	ec06                	sd	ra,24(sp)
    80000ef0:	e822                	sd	s0,16(sp)
    80000ef2:	e426                	sd	s1,8(sp)
    80000ef4:	1000                	add	s0,sp,32
    80000ef6:	84aa                	mv	s1,a0
  if(!holding(lk))
    80000ef8:	00000097          	auipc	ra,0x0
    80000efc:	ec6080e7          	jalr	-314(ra) # 80000dbe <holding>
    80000f00:	c115                	beqz	a0,80000f24 <release+0x38>
  lk->cpu = 0;
    80000f02:	0004b823          	sd	zero,16(s1)
  __sync_synchronize();
    80000f06:	0ff0000f          	fence
  __sync_lock_release(&lk->locked);
    80000f0a:	0f50000f          	fence	iorw,ow
    80000f0e:	0804a02f          	amoswap.w	zero,zero,(s1)
  pop_off();
    80000f12:	00000097          	auipc	ra,0x0
    80000f16:	f7a080e7          	jalr	-134(ra) # 80000e8c <pop_off>
}
    80000f1a:	60e2                	ld	ra,24(sp)
    80000f1c:	6442                	ld	s0,16(sp)
    80000f1e:	64a2                	ld	s1,8(sp)
    80000f20:	6105                	add	sp,sp,32
    80000f22:	8082                	ret
    panic("release");
    80000f24:	00007517          	auipc	a0,0x7
    80000f28:	19450513          	add	a0,a0,404 # 800080b8 <digits+0x78>
    80000f2c:	fffff097          	auipc	ra,0xfffff
    80000f30:	610080e7          	jalr	1552(ra) # 8000053c <panic>

0000000080000f34 <memset>:
#include "types.h"

void*
memset(void *dst, int c, uint n)
{
    80000f34:	1141                	add	sp,sp,-16
    80000f36:	e422                	sd	s0,8(sp)
    80000f38:	0800                	add	s0,sp,16
  char *cdst = (char *) dst;
  int i;
  for(i = 0; i < n; i++){
    80000f3a:	ca19                	beqz	a2,80000f50 <memset+0x1c>
    80000f3c:	87aa                	mv	a5,a0
    80000f3e:	1602                	sll	a2,a2,0x20
    80000f40:	9201                	srl	a2,a2,0x20
    80000f42:	00a60733          	add	a4,a2,a0
    cdst[i] = c;
    80000f46:	00b78023          	sb	a1,0(a5)
  for(i = 0; i < n; i++){
    80000f4a:	0785                	add	a5,a5,1
    80000f4c:	fee79de3          	bne	a5,a4,80000f46 <memset+0x12>
  }
  return dst;
}
    80000f50:	6422                	ld	s0,8(sp)
    80000f52:	0141                	add	sp,sp,16
    80000f54:	8082                	ret

0000000080000f56 <memcmp>:

int
memcmp(const void *v1, const void *v2, uint n)
{
    80000f56:	1141                	add	sp,sp,-16
    80000f58:	e422                	sd	s0,8(sp)
    80000f5a:	0800                	add	s0,sp,16
  const uchar *s1, *s2;

  s1 = v1;
  s2 = v2;
  while(n-- > 0){
    80000f5c:	ca05                	beqz	a2,80000f8c <memcmp+0x36>
    80000f5e:	fff6069b          	addw	a3,a2,-1 # fff <_entry-0x7ffff001>
    80000f62:	1682                	sll	a3,a3,0x20
    80000f64:	9281                	srl	a3,a3,0x20
    80000f66:	0685                	add	a3,a3,1
    80000f68:	96aa                	add	a3,a3,a0
    if(*s1 != *s2)
    80000f6a:	00054783          	lbu	a5,0(a0)
    80000f6e:	0005c703          	lbu	a4,0(a1) # fffffffffffff000 <end+0xffffffff7ffbc868>
    80000f72:	00e79863          	bne	a5,a4,80000f82 <memcmp+0x2c>
      return *s1 - *s2;
    s1++, s2++;
    80000f76:	0505                	add	a0,a0,1
    80000f78:	0585                	add	a1,a1,1
  while(n-- > 0){
    80000f7a:	fed518e3          	bne	a0,a3,80000f6a <memcmp+0x14>
  }

  return 0;
    80000f7e:	4501                	li	a0,0
    80000f80:	a019                	j	80000f86 <memcmp+0x30>
      return *s1 - *s2;
    80000f82:	40e7853b          	subw	a0,a5,a4
}
    80000f86:	6422                	ld	s0,8(sp)
    80000f88:	0141                	add	sp,sp,16
    80000f8a:	8082                	ret
  return 0;
    80000f8c:	4501                	li	a0,0
    80000f8e:	bfe5                	j	80000f86 <memcmp+0x30>

0000000080000f90 <memmove>:

void*
memmove(void *dst, const void *src, uint n)
{
    80000f90:	1141                	add	sp,sp,-16
    80000f92:	e422                	sd	s0,8(sp)
    80000f94:	0800                	add	s0,sp,16
  const char *s;
  char *d;

  if(n == 0)
    80000f96:	c205                	beqz	a2,80000fb6 <memmove+0x26>
    return dst;
  
  s = src;
  d = dst;
  if(s < d && s + n > d){
    80000f98:	02a5e263          	bltu	a1,a0,80000fbc <memmove+0x2c>
    s += n;
    d += n;
    while(n-- > 0)
      *--d = *--s;
  } else
    while(n-- > 0)
    80000f9c:	1602                	sll	a2,a2,0x20
    80000f9e:	9201                	srl	a2,a2,0x20
    80000fa0:	00c587b3          	add	a5,a1,a2
{
    80000fa4:	872a                	mv	a4,a0
      *d++ = *s++;
    80000fa6:	0585                	add	a1,a1,1
    80000fa8:	0705                	add	a4,a4,1
    80000faa:	fff5c683          	lbu	a3,-1(a1)
    80000fae:	fed70fa3          	sb	a3,-1(a4)
    while(n-- > 0)
    80000fb2:	fef59ae3          	bne	a1,a5,80000fa6 <memmove+0x16>

  return dst;
}
    80000fb6:	6422                	ld	s0,8(sp)
    80000fb8:	0141                	add	sp,sp,16
    80000fba:	8082                	ret
  if(s < d && s + n > d){
    80000fbc:	02061693          	sll	a3,a2,0x20
    80000fc0:	9281                	srl	a3,a3,0x20
    80000fc2:	00d58733          	add	a4,a1,a3
    80000fc6:	fce57be3          	bgeu	a0,a4,80000f9c <memmove+0xc>
    d += n;
    80000fca:	96aa                	add	a3,a3,a0
    while(n-- > 0)
    80000fcc:	fff6079b          	addw	a5,a2,-1
    80000fd0:	1782                	sll	a5,a5,0x20
    80000fd2:	9381                	srl	a5,a5,0x20
    80000fd4:	fff7c793          	not	a5,a5
    80000fd8:	97ba                	add	a5,a5,a4
      *--d = *--s;
    80000fda:	177d                	add	a4,a4,-1
    80000fdc:	16fd                	add	a3,a3,-1
    80000fde:	00074603          	lbu	a2,0(a4)
    80000fe2:	00c68023          	sb	a2,0(a3)
    while(n-- > 0)
    80000fe6:	fee79ae3          	bne	a5,a4,80000fda <memmove+0x4a>
    80000fea:	b7f1                	j	80000fb6 <memmove+0x26>

0000000080000fec <memcpy>:

// memcpy exists to placate GCC.  Use memmove.
void*
memcpy(void *dst, const void *src, uint n)
{
    80000fec:	1141                	add	sp,sp,-16
    80000fee:	e406                	sd	ra,8(sp)
    80000ff0:	e022                	sd	s0,0(sp)
    80000ff2:	0800                	add	s0,sp,16
  return memmove(dst, src, n);
    80000ff4:	00000097          	auipc	ra,0x0
    80000ff8:	f9c080e7          	jalr	-100(ra) # 80000f90 <memmove>
}
    80000ffc:	60a2                	ld	ra,8(sp)
    80000ffe:	6402                	ld	s0,0(sp)
    80001000:	0141                	add	sp,sp,16
    80001002:	8082                	ret

0000000080001004 <strncmp>:

int
strncmp(const char *p, const char *q, uint n)
{
    80001004:	1141                	add	sp,sp,-16
    80001006:	e422                	sd	s0,8(sp)
    80001008:	0800                	add	s0,sp,16
  while(n > 0 && *p && *p == *q)
    8000100a:	ce11                	beqz	a2,80001026 <strncmp+0x22>
    8000100c:	00054783          	lbu	a5,0(a0)
    80001010:	cf89                	beqz	a5,8000102a <strncmp+0x26>
    80001012:	0005c703          	lbu	a4,0(a1)
    80001016:	00f71a63          	bne	a4,a5,8000102a <strncmp+0x26>
    n--, p++, q++;
    8000101a:	367d                	addw	a2,a2,-1
    8000101c:	0505                	add	a0,a0,1
    8000101e:	0585                	add	a1,a1,1
  while(n > 0 && *p && *p == *q)
    80001020:	f675                	bnez	a2,8000100c <strncmp+0x8>
  if(n == 0)
    return 0;
    80001022:	4501                	li	a0,0
    80001024:	a809                	j	80001036 <strncmp+0x32>
    80001026:	4501                	li	a0,0
    80001028:	a039                	j	80001036 <strncmp+0x32>
  if(n == 0)
    8000102a:	ca09                	beqz	a2,8000103c <strncmp+0x38>
  return (uchar)*p - (uchar)*q;
    8000102c:	00054503          	lbu	a0,0(a0)
    80001030:	0005c783          	lbu	a5,0(a1)
    80001034:	9d1d                	subw	a0,a0,a5
}
    80001036:	6422                	ld	s0,8(sp)
    80001038:	0141                	add	sp,sp,16
    8000103a:	8082                	ret
    return 0;
    8000103c:	4501                	li	a0,0
    8000103e:	bfe5                	j	80001036 <strncmp+0x32>

0000000080001040 <strncpy>:

char*
strncpy(char *s, const char *t, int n)
{
    80001040:	1141                	add	sp,sp,-16
    80001042:	e422                	sd	s0,8(sp)
    80001044:	0800                	add	s0,sp,16
  char *os;

  os = s;
  while(n-- > 0 && (*s++ = *t++) != 0)
    80001046:	87aa                	mv	a5,a0
    80001048:	86b2                	mv	a3,a2
    8000104a:	367d                	addw	a2,a2,-1
    8000104c:	00d05963          	blez	a3,8000105e <strncpy+0x1e>
    80001050:	0785                	add	a5,a5,1
    80001052:	0005c703          	lbu	a4,0(a1)
    80001056:	fee78fa3          	sb	a4,-1(a5)
    8000105a:	0585                	add	a1,a1,1
    8000105c:	f775                	bnez	a4,80001048 <strncpy+0x8>
    ;
  while(n-- > 0)
    8000105e:	873e                	mv	a4,a5
    80001060:	9fb5                	addw	a5,a5,a3
    80001062:	37fd                	addw	a5,a5,-1
    80001064:	00c05963          	blez	a2,80001076 <strncpy+0x36>
    *s++ = 0;
    80001068:	0705                	add	a4,a4,1
    8000106a:	fe070fa3          	sb	zero,-1(a4)
  while(n-- > 0)
    8000106e:	40e786bb          	subw	a3,a5,a4
    80001072:	fed04be3          	bgtz	a3,80001068 <strncpy+0x28>
  return os;
}
    80001076:	6422                	ld	s0,8(sp)
    80001078:	0141                	add	sp,sp,16
    8000107a:	8082                	ret

000000008000107c <safestrcpy>:

// Like strncpy but guaranteed to NUL-terminate.
char*
safestrcpy(char *s, const char *t, int n)
{
    8000107c:	1141                	add	sp,sp,-16
    8000107e:	e422                	sd	s0,8(sp)
    80001080:	0800                	add	s0,sp,16
  char *os;

  os = s;
  if(n <= 0)
    80001082:	02c05363          	blez	a2,800010a8 <safestrcpy+0x2c>
    80001086:	fff6069b          	addw	a3,a2,-1
    8000108a:	1682                	sll	a3,a3,0x20
    8000108c:	9281                	srl	a3,a3,0x20
    8000108e:	96ae                	add	a3,a3,a1
    80001090:	87aa                	mv	a5,a0
    return os;
  while(--n > 0 && (*s++ = *t++) != 0)
    80001092:	00d58963          	beq	a1,a3,800010a4 <safestrcpy+0x28>
    80001096:	0585                	add	a1,a1,1
    80001098:	0785                	add	a5,a5,1
    8000109a:	fff5c703          	lbu	a4,-1(a1)
    8000109e:	fee78fa3          	sb	a4,-1(a5)
    800010a2:	fb65                	bnez	a4,80001092 <safestrcpy+0x16>
    ;
  *s = 0;
    800010a4:	00078023          	sb	zero,0(a5)
  return os;
}
    800010a8:	6422                	ld	s0,8(sp)
    800010aa:	0141                	add	sp,sp,16
    800010ac:	8082                	ret

00000000800010ae <strlen>:

int
strlen(const char *s)
{
    800010ae:	1141                	add	sp,sp,-16
    800010b0:	e422                	sd	s0,8(sp)
    800010b2:	0800                	add	s0,sp,16
  int n;

  for(n = 0; s[n]; n++)
    800010b4:	00054783          	lbu	a5,0(a0)
    800010b8:	cf91                	beqz	a5,800010d4 <strlen+0x26>
    800010ba:	0505                	add	a0,a0,1
    800010bc:	87aa                	mv	a5,a0
    800010be:	86be                	mv	a3,a5
    800010c0:	0785                	add	a5,a5,1
    800010c2:	fff7c703          	lbu	a4,-1(a5)
    800010c6:	ff65                	bnez	a4,800010be <strlen+0x10>
    800010c8:	40a6853b          	subw	a0,a3,a0
    800010cc:	2505                	addw	a0,a0,1
    ;
  return n;
}
    800010ce:	6422                	ld	s0,8(sp)
    800010d0:	0141                	add	sp,sp,16
    800010d2:	8082                	ret
  for(n = 0; s[n]; n++)
    800010d4:	4501                	li	a0,0
    800010d6:	bfe5                	j	800010ce <strlen+0x20>

00000000800010d8 <main>:
volatile static int started = 0;

// start() jumps here in supervisor mode on all CPUs.
void
main()
{
    800010d8:	1141                	add	sp,sp,-16
    800010da:	e406                	sd	ra,8(sp)
    800010dc:	e022                	sd	s0,0(sp)
    800010de:	0800                	add	s0,sp,16
  if(cpuid() == 0){
    800010e0:	00001097          	auipc	ra,0x1
    800010e4:	af8080e7          	jalr	-1288(ra) # 80001bd8 <cpuid>
    virtio_disk_init(); // emulated hard disk
    userinit();      // first user process
    __sync_synchronize();
    started = 1;
  } else {
    while(started == 0)
    800010e8:	00008717          	auipc	a4,0x8
    800010ec:	80070713          	add	a4,a4,-2048 # 800088e8 <started>
  if(cpuid() == 0){
    800010f0:	c139                	beqz	a0,80001136 <main+0x5e>
    while(started == 0)
    800010f2:	431c                	lw	a5,0(a4)
    800010f4:	2781                	sext.w	a5,a5
    800010f6:	dff5                	beqz	a5,800010f2 <main+0x1a>
      ;
    __sync_synchronize();
    800010f8:	0ff0000f          	fence
    printf("hart %d starting\n", cpuid());
    800010fc:	00001097          	auipc	ra,0x1
    80001100:	adc080e7          	jalr	-1316(ra) # 80001bd8 <cpuid>
    80001104:	85aa                	mv	a1,a0
    80001106:	00007517          	auipc	a0,0x7
    8000110a:	fd250513          	add	a0,a0,-46 # 800080d8 <digits+0x98>
    8000110e:	fffff097          	auipc	ra,0xfffff
    80001112:	478080e7          	jalr	1144(ra) # 80000586 <printf>
    kvminithart();    // turn on paging
    80001116:	00000097          	auipc	ra,0x0
    8000111a:	0d8080e7          	jalr	216(ra) # 800011ee <kvminithart>
    trapinithart();   // install kernel trap vector
    8000111e:	00002097          	auipc	ra,0x2
    80001122:	a98080e7          	jalr	-1384(ra) # 80002bb6 <trapinithart>
    plicinithart();   // ask PLIC for device interrupts
    80001126:	00005097          	auipc	ra,0x5
    8000112a:	17a080e7          	jalr	378(ra) # 800062a0 <plicinithart>
  }

  scheduler();        
    8000112e:	00001097          	auipc	ra,0x1
    80001132:	000080e7          	jalr	ra # 8000212e <scheduler>
    consoleinit();
    80001136:	fffff097          	auipc	ra,0xfffff
    8000113a:	316080e7          	jalr	790(ra) # 8000044c <consoleinit>
    printfinit();
    8000113e:	fffff097          	auipc	ra,0xfffff
    80001142:	628080e7          	jalr	1576(ra) # 80000766 <printfinit>
    printf("\n");
    80001146:	00007517          	auipc	a0,0x7
    8000114a:	fa250513          	add	a0,a0,-94 # 800080e8 <digits+0xa8>
    8000114e:	fffff097          	auipc	ra,0xfffff
    80001152:	438080e7          	jalr	1080(ra) # 80000586 <printf>
    printf("xv6 kernel is booting\n");
    80001156:	00007517          	auipc	a0,0x7
    8000115a:	f6a50513          	add	a0,a0,-150 # 800080c0 <digits+0x80>
    8000115e:	fffff097          	auipc	ra,0xfffff
    80001162:	428080e7          	jalr	1064(ra) # 80000586 <printf>
    printf("\n");
    80001166:	00007517          	auipc	a0,0x7
    8000116a:	f8250513          	add	a0,a0,-126 # 800080e8 <digits+0xa8>
    8000116e:	fffff097          	auipc	ra,0xfffff
    80001172:	418080e7          	jalr	1048(ra) # 80000586 <printf>
    kinit();         // physical page allocator
    80001176:	00000097          	auipc	ra,0x0
    8000117a:	98e080e7          	jalr	-1650(ra) # 80000b04 <kinit>
    kvminit();       // create kernel page table
    8000117e:	00000097          	auipc	ra,0x0
    80001182:	326080e7          	jalr	806(ra) # 800014a4 <kvminit>
    kvminithart();   // turn on paging
    80001186:	00000097          	auipc	ra,0x0
    8000118a:	068080e7          	jalr	104(ra) # 800011ee <kvminithart>
    procinit();      // process table
    8000118e:	00001097          	auipc	ra,0x1
    80001192:	996080e7          	jalr	-1642(ra) # 80001b24 <procinit>
    trapinit();      // trap vectors
    80001196:	00002097          	auipc	ra,0x2
    8000119a:	9f8080e7          	jalr	-1544(ra) # 80002b8e <trapinit>
    trapinithart();  // install kernel trap vector
    8000119e:	00002097          	auipc	ra,0x2
    800011a2:	a18080e7          	jalr	-1512(ra) # 80002bb6 <trapinithart>
    plicinit();      // set up interrupt controller
    800011a6:	00005097          	auipc	ra,0x5
    800011aa:	0e4080e7          	jalr	228(ra) # 8000628a <plicinit>
    plicinithart();  // ask PLIC for device interrupts
    800011ae:	00005097          	auipc	ra,0x5
    800011b2:	0f2080e7          	jalr	242(ra) # 800062a0 <plicinithart>
    binit();         // buffer cache
    800011b6:	00002097          	auipc	ra,0x2
    800011ba:	2cc080e7          	jalr	716(ra) # 80003482 <binit>
    iinit();         // inode table
    800011be:	00003097          	auipc	ra,0x3
    800011c2:	96a080e7          	jalr	-1686(ra) # 80003b28 <iinit>
    fileinit();      // file table
    800011c6:	00004097          	auipc	ra,0x4
    800011ca:	8e0080e7          	jalr	-1824(ra) # 80004aa6 <fileinit>
    virtio_disk_init(); // emulated hard disk
    800011ce:	00005097          	auipc	ra,0x5
    800011d2:	1da080e7          	jalr	474(ra) # 800063a8 <virtio_disk_init>
    userinit();      // first user process
    800011d6:	00001097          	auipc	ra,0x1
    800011da:	d3a080e7          	jalr	-710(ra) # 80001f10 <userinit>
    __sync_synchronize();
    800011de:	0ff0000f          	fence
    started = 1;
    800011e2:	4785                	li	a5,1
    800011e4:	00007717          	auipc	a4,0x7
    800011e8:	70f72223          	sw	a5,1796(a4) # 800088e8 <started>
    800011ec:	b789                	j	8000112e <main+0x56>

00000000800011ee <kvminithart>:

// Switch h/w page table register to the kernel's page table,
// and enable paging.
void
kvminithart()
{
    800011ee:	1141                	add	sp,sp,-16
    800011f0:	e422                	sd	s0,8(sp)
    800011f2:	0800                	add	s0,sp,16
// flush the TLB.
static inline void
sfence_vma()
{
  // the zero, zero means flush all TLB entries.
  asm volatile("sfence.vma zero, zero");
    800011f4:	12000073          	sfence.vma
  // wait for any previous writes to the page table memory to finish.
  sfence_vma();

  w_satp(MAKE_SATP(kernel_pagetable));
    800011f8:	00007797          	auipc	a5,0x7
    800011fc:	6f87b783          	ld	a5,1784(a5) # 800088f0 <kernel_pagetable>
    80001200:	83b1                	srl	a5,a5,0xc
    80001202:	577d                	li	a4,-1
    80001204:	177e                	sll	a4,a4,0x3f
    80001206:	8fd9                	or	a5,a5,a4
  asm volatile("csrw satp, %0" : : "r" (x));
    80001208:	18079073          	csrw	satp,a5
  asm volatile("sfence.vma zero, zero");
    8000120c:	12000073          	sfence.vma

  // flush stale entries from the TLB.
  sfence_vma();
}
    80001210:	6422                	ld	s0,8(sp)
    80001212:	0141                	add	sp,sp,16
    80001214:	8082                	ret

0000000080001216 <walk>:
//   21..29 -- 9 bits of level-1 index.
//   12..20 -- 9 bits of level-0 index.
//    0..11 -- 12 bits of byte offset within the page.
pte_t *
walk(pagetable_t pagetable, uint64 va, int alloc)
{
    80001216:	7139                	add	sp,sp,-64
    80001218:	fc06                	sd	ra,56(sp)
    8000121a:	f822                	sd	s0,48(sp)
    8000121c:	f426                	sd	s1,40(sp)
    8000121e:	f04a                	sd	s2,32(sp)
    80001220:	ec4e                	sd	s3,24(sp)
    80001222:	e852                	sd	s4,16(sp)
    80001224:	e456                	sd	s5,8(sp)
    80001226:	e05a                	sd	s6,0(sp)
    80001228:	0080                	add	s0,sp,64
    8000122a:	84aa                	mv	s1,a0
    8000122c:	89ae                	mv	s3,a1
    8000122e:	8ab2                	mv	s5,a2
  if(va >= MAXVA)
    80001230:	57fd                	li	a5,-1
    80001232:	83e9                	srl	a5,a5,0x1a
    80001234:	4a79                	li	s4,30
    panic("walk");

  for(int level = 2; level > 0; level--) {
    80001236:	4b31                	li	s6,12
  if(va >= MAXVA)
    80001238:	04b7f263          	bgeu	a5,a1,8000127c <walk+0x66>
    panic("walk");
    8000123c:	00007517          	auipc	a0,0x7
    80001240:	eb450513          	add	a0,a0,-332 # 800080f0 <digits+0xb0>
    80001244:	fffff097          	auipc	ra,0xfffff
    80001248:	2f8080e7          	jalr	760(ra) # 8000053c <panic>
    pte_t *pte = &pagetable[PX(level, va)];
    if(*pte & PTE_V) {
      pagetable = (pagetable_t)PTE2PA(*pte);
    } else {
      if(!alloc || (pagetable = (pde_t*)kalloc()) == 0)
    8000124c:	060a8663          	beqz	s5,800012b8 <walk+0xa2>
    80001250:	00000097          	auipc	ra,0x0
    80001254:	908080e7          	jalr	-1784(ra) # 80000b58 <kalloc>
    80001258:	84aa                	mv	s1,a0
    8000125a:	c529                	beqz	a0,800012a4 <walk+0x8e>
        return 0;
      memset(pagetable, 0, PGSIZE);
    8000125c:	6605                	lui	a2,0x1
    8000125e:	4581                	li	a1,0
    80001260:	00000097          	auipc	ra,0x0
    80001264:	cd4080e7          	jalr	-812(ra) # 80000f34 <memset>
      *pte = PA2PTE(pagetable) | PTE_V;
    80001268:	00c4d793          	srl	a5,s1,0xc
    8000126c:	07aa                	sll	a5,a5,0xa
    8000126e:	0017e793          	or	a5,a5,1
    80001272:	00f93023          	sd	a5,0(s2)
  for(int level = 2; level > 0; level--) {
    80001276:	3a5d                	addw	s4,s4,-9 # ffffffffffffeff7 <end+0xffffffff7ffbc85f>
    80001278:	036a0063          	beq	s4,s6,80001298 <walk+0x82>
    pte_t *pte = &pagetable[PX(level, va)];
    8000127c:	0149d933          	srl	s2,s3,s4
    80001280:	1ff97913          	and	s2,s2,511
    80001284:	090e                	sll	s2,s2,0x3
    80001286:	9926                	add	s2,s2,s1
    if(*pte & PTE_V) {
    80001288:	00093483          	ld	s1,0(s2)
    8000128c:	0014f793          	and	a5,s1,1
    80001290:	dfd5                	beqz	a5,8000124c <walk+0x36>
      pagetable = (pagetable_t)PTE2PA(*pte);
    80001292:	80a9                	srl	s1,s1,0xa
    80001294:	04b2                	sll	s1,s1,0xc
    80001296:	b7c5                	j	80001276 <walk+0x60>
    }
  }
  return &pagetable[PX(0, va)];
    80001298:	00c9d513          	srl	a0,s3,0xc
    8000129c:	1ff57513          	and	a0,a0,511
    800012a0:	050e                	sll	a0,a0,0x3
    800012a2:	9526                	add	a0,a0,s1
}
    800012a4:	70e2                	ld	ra,56(sp)
    800012a6:	7442                	ld	s0,48(sp)
    800012a8:	74a2                	ld	s1,40(sp)
    800012aa:	7902                	ld	s2,32(sp)
    800012ac:	69e2                	ld	s3,24(sp)
    800012ae:	6a42                	ld	s4,16(sp)
    800012b0:	6aa2                	ld	s5,8(sp)
    800012b2:	6b02                	ld	s6,0(sp)
    800012b4:	6121                	add	sp,sp,64
    800012b6:	8082                	ret
        return 0;
    800012b8:	4501                	li	a0,0
    800012ba:	b7ed                	j	800012a4 <walk+0x8e>

00000000800012bc <walkaddr>:
walkaddr(pagetable_t pagetable, uint64 va)
{
  pte_t *pte;
  uint64 pa;

  if(va >= MAXVA)
    800012bc:	57fd                	li	a5,-1
    800012be:	83e9                	srl	a5,a5,0x1a
    800012c0:	00b7f463          	bgeu	a5,a1,800012c8 <walkaddr+0xc>
    return 0;
    800012c4:	4501                	li	a0,0
    return 0;
  if((*pte & PTE_U) == 0)
    return 0;
  pa = PTE2PA(*pte);
  return pa;
}
    800012c6:	8082                	ret
{
    800012c8:	1141                	add	sp,sp,-16
    800012ca:	e406                	sd	ra,8(sp)
    800012cc:	e022                	sd	s0,0(sp)
    800012ce:	0800                	add	s0,sp,16
  pte = walk(pagetable, va, 0);
    800012d0:	4601                	li	a2,0
    800012d2:	00000097          	auipc	ra,0x0
    800012d6:	f44080e7          	jalr	-188(ra) # 80001216 <walk>
  if(pte == 0)
    800012da:	c105                	beqz	a0,800012fa <walkaddr+0x3e>
  if((*pte & PTE_V) == 0)
    800012dc:	611c                	ld	a5,0(a0)
  if((*pte & PTE_U) == 0)
    800012de:	0117f693          	and	a3,a5,17
    800012e2:	4745                	li	a4,17
    return 0;
    800012e4:	4501                	li	a0,0
  if((*pte & PTE_U) == 0)
    800012e6:	00e68663          	beq	a3,a4,800012f2 <walkaddr+0x36>
}
    800012ea:	60a2                	ld	ra,8(sp)
    800012ec:	6402                	ld	s0,0(sp)
    800012ee:	0141                	add	sp,sp,16
    800012f0:	8082                	ret
  pa = PTE2PA(*pte);
    800012f2:	83a9                	srl	a5,a5,0xa
    800012f4:	00c79513          	sll	a0,a5,0xc
  return pa;
    800012f8:	bfcd                	j	800012ea <walkaddr+0x2e>
    return 0;
    800012fa:	4501                	li	a0,0
    800012fc:	b7fd                	j	800012ea <walkaddr+0x2e>

00000000800012fe <mappages>:
// physical addresses starting at pa. va and size might not
// be page-aligned. Returns 0 on success, -1 if walk() couldn't
// allocate a needed page-table page.
int
mappages(pagetable_t pagetable, uint64 va, uint64 size, uint64 pa, int perm)
{
    800012fe:	715d                	add	sp,sp,-80
    80001300:	e486                	sd	ra,72(sp)
    80001302:	e0a2                	sd	s0,64(sp)
    80001304:	fc26                	sd	s1,56(sp)
    80001306:	f84a                	sd	s2,48(sp)
    80001308:	f44e                	sd	s3,40(sp)
    8000130a:	f052                	sd	s4,32(sp)
    8000130c:	ec56                	sd	s5,24(sp)
    8000130e:	e85a                	sd	s6,16(sp)
    80001310:	e45e                	sd	s7,8(sp)
    80001312:	0880                	add	s0,sp,80
  uint64 a, last;
  pte_t *pte;

  if(size == 0)
    80001314:	c639                	beqz	a2,80001362 <mappages+0x64>
    80001316:	8aaa                	mv	s5,a0
    80001318:	8b3a                	mv	s6,a4
    panic("mappages: size");
  
  a = PGROUNDDOWN(va);
    8000131a:	777d                	lui	a4,0xfffff
    8000131c:	00e5f7b3          	and	a5,a1,a4
  last = PGROUNDDOWN(va + size - 1);
    80001320:	fff58993          	add	s3,a1,-1
    80001324:	99b2                	add	s3,s3,a2
    80001326:	00e9f9b3          	and	s3,s3,a4
  a = PGROUNDDOWN(va);
    8000132a:	893e                	mv	s2,a5
    8000132c:	40f68a33          	sub	s4,a3,a5
    if(*pte & PTE_V)
      panic("mappages: remap");
    *pte = PA2PTE(pa) | perm | PTE_V;
    if(a == last)
      break;
    a += PGSIZE;
    80001330:	6b85                	lui	s7,0x1
    80001332:	012a04b3          	add	s1,s4,s2
    if((pte = walk(pagetable, a, 1)) == 0)
    80001336:	4605                	li	a2,1
    80001338:	85ca                	mv	a1,s2
    8000133a:	8556                	mv	a0,s5
    8000133c:	00000097          	auipc	ra,0x0
    80001340:	eda080e7          	jalr	-294(ra) # 80001216 <walk>
    80001344:	cd1d                	beqz	a0,80001382 <mappages+0x84>
    if(*pte & PTE_V)
    80001346:	611c                	ld	a5,0(a0)
    80001348:	8b85                	and	a5,a5,1
    8000134a:	e785                	bnez	a5,80001372 <mappages+0x74>
    *pte = PA2PTE(pa) | perm | PTE_V;
    8000134c:	80b1                	srl	s1,s1,0xc
    8000134e:	04aa                	sll	s1,s1,0xa
    80001350:	0164e4b3          	or	s1,s1,s6
    80001354:	0014e493          	or	s1,s1,1
    80001358:	e104                	sd	s1,0(a0)
    if(a == last)
    8000135a:	05390063          	beq	s2,s3,8000139a <mappages+0x9c>
    a += PGSIZE;
    8000135e:	995e                	add	s2,s2,s7
    if((pte = walk(pagetable, a, 1)) == 0)
    80001360:	bfc9                	j	80001332 <mappages+0x34>
    panic("mappages: size");
    80001362:	00007517          	auipc	a0,0x7
    80001366:	d9650513          	add	a0,a0,-618 # 800080f8 <digits+0xb8>
    8000136a:	fffff097          	auipc	ra,0xfffff
    8000136e:	1d2080e7          	jalr	466(ra) # 8000053c <panic>
      panic("mappages: remap");
    80001372:	00007517          	auipc	a0,0x7
    80001376:	d9650513          	add	a0,a0,-618 # 80008108 <digits+0xc8>
    8000137a:	fffff097          	auipc	ra,0xfffff
    8000137e:	1c2080e7          	jalr	450(ra) # 8000053c <panic>
      return -1;
    80001382:	557d                	li	a0,-1
    pa += PGSIZE;
  }
  return 0;
}
    80001384:	60a6                	ld	ra,72(sp)
    80001386:	6406                	ld	s0,64(sp)
    80001388:	74e2                	ld	s1,56(sp)
    8000138a:	7942                	ld	s2,48(sp)
    8000138c:	79a2                	ld	s3,40(sp)
    8000138e:	7a02                	ld	s4,32(sp)
    80001390:	6ae2                	ld	s5,24(sp)
    80001392:	6b42                	ld	s6,16(sp)
    80001394:	6ba2                	ld	s7,8(sp)
    80001396:	6161                	add	sp,sp,80
    80001398:	8082                	ret
  return 0;
    8000139a:	4501                	li	a0,0
    8000139c:	b7e5                	j	80001384 <mappages+0x86>

000000008000139e <kvmmap>:
{
    8000139e:	1141                	add	sp,sp,-16
    800013a0:	e406                	sd	ra,8(sp)
    800013a2:	e022                	sd	s0,0(sp)
    800013a4:	0800                	add	s0,sp,16
    800013a6:	87b6                	mv	a5,a3
  if(mappages(kpgtbl, va, sz, pa, perm) != 0)
    800013a8:	86b2                	mv	a3,a2
    800013aa:	863e                	mv	a2,a5
    800013ac:	00000097          	auipc	ra,0x0
    800013b0:	f52080e7          	jalr	-174(ra) # 800012fe <mappages>
    800013b4:	e509                	bnez	a0,800013be <kvmmap+0x20>
}
    800013b6:	60a2                	ld	ra,8(sp)
    800013b8:	6402                	ld	s0,0(sp)
    800013ba:	0141                	add	sp,sp,16
    800013bc:	8082                	ret
    panic("kvmmap");
    800013be:	00007517          	auipc	a0,0x7
    800013c2:	d5a50513          	add	a0,a0,-678 # 80008118 <digits+0xd8>
    800013c6:	fffff097          	auipc	ra,0xfffff
    800013ca:	176080e7          	jalr	374(ra) # 8000053c <panic>

00000000800013ce <kvmmake>:
{
    800013ce:	1101                	add	sp,sp,-32
    800013d0:	ec06                	sd	ra,24(sp)
    800013d2:	e822                	sd	s0,16(sp)
    800013d4:	e426                	sd	s1,8(sp)
    800013d6:	e04a                	sd	s2,0(sp)
    800013d8:	1000                	add	s0,sp,32
  kpgtbl = (pagetable_t) kalloc();
    800013da:	fffff097          	auipc	ra,0xfffff
    800013de:	77e080e7          	jalr	1918(ra) # 80000b58 <kalloc>
    800013e2:	84aa                	mv	s1,a0
  memset(kpgtbl, 0, PGSIZE);
    800013e4:	6605                	lui	a2,0x1
    800013e6:	4581                	li	a1,0
    800013e8:	00000097          	auipc	ra,0x0
    800013ec:	b4c080e7          	jalr	-1204(ra) # 80000f34 <memset>
  kvmmap(kpgtbl, UART0, UART0, PGSIZE, PTE_R | PTE_W);
    800013f0:	4719                	li	a4,6
    800013f2:	6685                	lui	a3,0x1
    800013f4:	10000637          	lui	a2,0x10000
    800013f8:	100005b7          	lui	a1,0x10000
    800013fc:	8526                	mv	a0,s1
    800013fe:	00000097          	auipc	ra,0x0
    80001402:	fa0080e7          	jalr	-96(ra) # 8000139e <kvmmap>
  kvmmap(kpgtbl, VIRTIO0, VIRTIO0, PGSIZE, PTE_R | PTE_W);
    80001406:	4719                	li	a4,6
    80001408:	6685                	lui	a3,0x1
    8000140a:	10001637          	lui	a2,0x10001
    8000140e:	100015b7          	lui	a1,0x10001
    80001412:	8526                	mv	a0,s1
    80001414:	00000097          	auipc	ra,0x0
    80001418:	f8a080e7          	jalr	-118(ra) # 8000139e <kvmmap>
  kvmmap(kpgtbl, PLIC, PLIC, 0x400000, PTE_R | PTE_W);
    8000141c:	4719                	li	a4,6
    8000141e:	004006b7          	lui	a3,0x400
    80001422:	0c000637          	lui	a2,0xc000
    80001426:	0c0005b7          	lui	a1,0xc000
    8000142a:	8526                	mv	a0,s1
    8000142c:	00000097          	auipc	ra,0x0
    80001430:	f72080e7          	jalr	-142(ra) # 8000139e <kvmmap>
  kvmmap(kpgtbl, KERNBASE, KERNBASE, (uint64)etext-KERNBASE, PTE_R | PTE_X);
    80001434:	00007917          	auipc	s2,0x7
    80001438:	bcc90913          	add	s2,s2,-1076 # 80008000 <etext>
    8000143c:	4729                	li	a4,10
    8000143e:	80007697          	auipc	a3,0x80007
    80001442:	bc268693          	add	a3,a3,-1086 # 8000 <_entry-0x7fff8000>
    80001446:	4605                	li	a2,1
    80001448:	067e                	sll	a2,a2,0x1f
    8000144a:	85b2                	mv	a1,a2
    8000144c:	8526                	mv	a0,s1
    8000144e:	00000097          	auipc	ra,0x0
    80001452:	f50080e7          	jalr	-176(ra) # 8000139e <kvmmap>
  kvmmap(kpgtbl, (uint64)etext, (uint64)etext, PHYSTOP-(uint64)etext, PTE_R | PTE_W);
    80001456:	4719                	li	a4,6
    80001458:	46c5                	li	a3,17
    8000145a:	06ee                	sll	a3,a3,0x1b
    8000145c:	412686b3          	sub	a3,a3,s2
    80001460:	864a                	mv	a2,s2
    80001462:	85ca                	mv	a1,s2
    80001464:	8526                	mv	a0,s1
    80001466:	00000097          	auipc	ra,0x0
    8000146a:	f38080e7          	jalr	-200(ra) # 8000139e <kvmmap>
  kvmmap(kpgtbl, TRAMPOLINE, (uint64)trampoline, PGSIZE, PTE_R | PTE_X);
    8000146e:	4729                	li	a4,10
    80001470:	6685                	lui	a3,0x1
    80001472:	00006617          	auipc	a2,0x6
    80001476:	b8e60613          	add	a2,a2,-1138 # 80007000 <_trampoline>
    8000147a:	040005b7          	lui	a1,0x4000
    8000147e:	15fd                	add	a1,a1,-1 # 3ffffff <_entry-0x7c000001>
    80001480:	05b2                	sll	a1,a1,0xc
    80001482:	8526                	mv	a0,s1
    80001484:	00000097          	auipc	ra,0x0
    80001488:	f1a080e7          	jalr	-230(ra) # 8000139e <kvmmap>
  proc_mapstacks(kpgtbl);
    8000148c:	8526                	mv	a0,s1
    8000148e:	00000097          	auipc	ra,0x0
    80001492:	600080e7          	jalr	1536(ra) # 80001a8e <proc_mapstacks>
}
    80001496:	8526                	mv	a0,s1
    80001498:	60e2                	ld	ra,24(sp)
    8000149a:	6442                	ld	s0,16(sp)
    8000149c:	64a2                	ld	s1,8(sp)
    8000149e:	6902                	ld	s2,0(sp)
    800014a0:	6105                	add	sp,sp,32
    800014a2:	8082                	ret

00000000800014a4 <kvminit>:
{
    800014a4:	1141                	add	sp,sp,-16
    800014a6:	e406                	sd	ra,8(sp)
    800014a8:	e022                	sd	s0,0(sp)
    800014aa:	0800                	add	s0,sp,16
  kernel_pagetable = kvmmake();
    800014ac:	00000097          	auipc	ra,0x0
    800014b0:	f22080e7          	jalr	-222(ra) # 800013ce <kvmmake>
    800014b4:	00007797          	auipc	a5,0x7
    800014b8:	42a7be23          	sd	a0,1084(a5) # 800088f0 <kernel_pagetable>
}
    800014bc:	60a2                	ld	ra,8(sp)
    800014be:	6402                	ld	s0,0(sp)
    800014c0:	0141                	add	sp,sp,16
    800014c2:	8082                	ret

00000000800014c4 <uvmunmap>:
// Remove npages of mappings starting from va. va must be
// page-aligned. The mappings must exist.
// Optionally free the physical memory.
void
uvmunmap(pagetable_t pagetable, uint64 va, uint64 npages, int do_free)
{
    800014c4:	715d                	add	sp,sp,-80
    800014c6:	e486                	sd	ra,72(sp)
    800014c8:	e0a2                	sd	s0,64(sp)
    800014ca:	fc26                	sd	s1,56(sp)
    800014cc:	f84a                	sd	s2,48(sp)
    800014ce:	f44e                	sd	s3,40(sp)
    800014d0:	f052                	sd	s4,32(sp)
    800014d2:	ec56                	sd	s5,24(sp)
    800014d4:	e85a                	sd	s6,16(sp)
    800014d6:	e45e                	sd	s7,8(sp)
    800014d8:	0880                	add	s0,sp,80
  uint64 a;
  pte_t *pte;

  if((va % PGSIZE) != 0)
    800014da:	03459793          	sll	a5,a1,0x34
    800014de:	e795                	bnez	a5,8000150a <uvmunmap+0x46>
    800014e0:	8a2a                	mv	s4,a0
    800014e2:	892e                	mv	s2,a1
    800014e4:	8ab6                	mv	s5,a3
    panic("uvmunmap: not aligned");

  for(a = va; a < va + npages*PGSIZE; a += PGSIZE){
    800014e6:	0632                	sll	a2,a2,0xc
    800014e8:	00b609b3          	add	s3,a2,a1
    if((pte = walk(pagetable, a, 0)) == 0)
      panic("uvmunmap: walk");
    if((*pte & PTE_V) == 0)
      panic("uvmunmap: not mapped");
    if(PTE_FLAGS(*pte) == PTE_V)
    800014ec:	4b85                	li	s7,1
  for(a = va; a < va + npages*PGSIZE; a += PGSIZE){
    800014ee:	6b05                	lui	s6,0x1
    800014f0:	0735e263          	bltu	a1,s3,80001554 <uvmunmap+0x90>
      uint64 pa = PTE2PA(*pte);
      kfree((void*)pa);
    }
    *pte = 0;
  }
}
    800014f4:	60a6                	ld	ra,72(sp)
    800014f6:	6406                	ld	s0,64(sp)
    800014f8:	74e2                	ld	s1,56(sp)
    800014fa:	7942                	ld	s2,48(sp)
    800014fc:	79a2                	ld	s3,40(sp)
    800014fe:	7a02                	ld	s4,32(sp)
    80001500:	6ae2                	ld	s5,24(sp)
    80001502:	6b42                	ld	s6,16(sp)
    80001504:	6ba2                	ld	s7,8(sp)
    80001506:	6161                	add	sp,sp,80
    80001508:	8082                	ret
    panic("uvmunmap: not aligned");
    8000150a:	00007517          	auipc	a0,0x7
    8000150e:	c1650513          	add	a0,a0,-1002 # 80008120 <digits+0xe0>
    80001512:	fffff097          	auipc	ra,0xfffff
    80001516:	02a080e7          	jalr	42(ra) # 8000053c <panic>
      panic("uvmunmap: walk");
    8000151a:	00007517          	auipc	a0,0x7
    8000151e:	c1e50513          	add	a0,a0,-994 # 80008138 <digits+0xf8>
    80001522:	fffff097          	auipc	ra,0xfffff
    80001526:	01a080e7          	jalr	26(ra) # 8000053c <panic>
      panic("uvmunmap: not mapped");
    8000152a:	00007517          	auipc	a0,0x7
    8000152e:	c1e50513          	add	a0,a0,-994 # 80008148 <digits+0x108>
    80001532:	fffff097          	auipc	ra,0xfffff
    80001536:	00a080e7          	jalr	10(ra) # 8000053c <panic>
      panic("uvmunmap: not a leaf");
    8000153a:	00007517          	auipc	a0,0x7
    8000153e:	c2650513          	add	a0,a0,-986 # 80008160 <digits+0x120>
    80001542:	fffff097          	auipc	ra,0xfffff
    80001546:	ffa080e7          	jalr	-6(ra) # 8000053c <panic>
    *pte = 0;
    8000154a:	0004b023          	sd	zero,0(s1)
  for(a = va; a < va + npages*PGSIZE; a += PGSIZE){
    8000154e:	995a                	add	s2,s2,s6
    80001550:	fb3972e3          	bgeu	s2,s3,800014f4 <uvmunmap+0x30>
    if((pte = walk(pagetable, a, 0)) == 0)
    80001554:	4601                	li	a2,0
    80001556:	85ca                	mv	a1,s2
    80001558:	8552                	mv	a0,s4
    8000155a:	00000097          	auipc	ra,0x0
    8000155e:	cbc080e7          	jalr	-836(ra) # 80001216 <walk>
    80001562:	84aa                	mv	s1,a0
    80001564:	d95d                	beqz	a0,8000151a <uvmunmap+0x56>
    if((*pte & PTE_V) == 0)
    80001566:	6108                	ld	a0,0(a0)
    80001568:	00157793          	and	a5,a0,1
    8000156c:	dfdd                	beqz	a5,8000152a <uvmunmap+0x66>
    if(PTE_FLAGS(*pte) == PTE_V)
    8000156e:	3ff57793          	and	a5,a0,1023
    80001572:	fd7784e3          	beq	a5,s7,8000153a <uvmunmap+0x76>
    if(do_free){
    80001576:	fc0a8ae3          	beqz	s5,8000154a <uvmunmap+0x86>
      uint64 pa = PTE2PA(*pte);
    8000157a:	8129                	srl	a0,a0,0xa
      kfree((void*)pa);
    8000157c:	0532                	sll	a0,a0,0xc
    8000157e:	fffff097          	auipc	ra,0xfffff
    80001582:	466080e7          	jalr	1126(ra) # 800009e4 <kfree>
    80001586:	b7d1                	j	8000154a <uvmunmap+0x86>

0000000080001588 <uvmcreate>:

// create an empty user page table.
// returns 0 if out of memory.
pagetable_t
uvmcreate()
{
    80001588:	1101                	add	sp,sp,-32
    8000158a:	ec06                	sd	ra,24(sp)
    8000158c:	e822                	sd	s0,16(sp)
    8000158e:	e426                	sd	s1,8(sp)
    80001590:	1000                	add	s0,sp,32
  pagetable_t pagetable;
  pagetable = (pagetable_t) kalloc();
    80001592:	fffff097          	auipc	ra,0xfffff
    80001596:	5c6080e7          	jalr	1478(ra) # 80000b58 <kalloc>
    8000159a:	84aa                	mv	s1,a0
  if(pagetable == 0)
    8000159c:	c519                	beqz	a0,800015aa <uvmcreate+0x22>
    return 0;
  memset(pagetable, 0, PGSIZE);
    8000159e:	6605                	lui	a2,0x1
    800015a0:	4581                	li	a1,0
    800015a2:	00000097          	auipc	ra,0x0
    800015a6:	992080e7          	jalr	-1646(ra) # 80000f34 <memset>
  return pagetable;
}
    800015aa:	8526                	mv	a0,s1
    800015ac:	60e2                	ld	ra,24(sp)
    800015ae:	6442                	ld	s0,16(sp)
    800015b0:	64a2                	ld	s1,8(sp)
    800015b2:	6105                	add	sp,sp,32
    800015b4:	8082                	ret

00000000800015b6 <uvmfirst>:
// Load the user initcode into address 0 of pagetable,
// for the very first process.
// sz must be less than a page.
void
uvmfirst(pagetable_t pagetable, uchar *src, uint sz)
{
    800015b6:	7179                	add	sp,sp,-48
    800015b8:	f406                	sd	ra,40(sp)
    800015ba:	f022                	sd	s0,32(sp)
    800015bc:	ec26                	sd	s1,24(sp)
    800015be:	e84a                	sd	s2,16(sp)
    800015c0:	e44e                	sd	s3,8(sp)
    800015c2:	e052                	sd	s4,0(sp)
    800015c4:	1800                	add	s0,sp,48
  char *mem;

  if(sz >= PGSIZE)
    800015c6:	6785                	lui	a5,0x1
    800015c8:	04f67863          	bgeu	a2,a5,80001618 <uvmfirst+0x62>
    800015cc:	8a2a                	mv	s4,a0
    800015ce:	89ae                	mv	s3,a1
    800015d0:	84b2                	mv	s1,a2
    panic("uvmfirst: more than a page");
  mem = kalloc();
    800015d2:	fffff097          	auipc	ra,0xfffff
    800015d6:	586080e7          	jalr	1414(ra) # 80000b58 <kalloc>
    800015da:	892a                	mv	s2,a0
  memset(mem, 0, PGSIZE);
    800015dc:	6605                	lui	a2,0x1
    800015de:	4581                	li	a1,0
    800015e0:	00000097          	auipc	ra,0x0
    800015e4:	954080e7          	jalr	-1708(ra) # 80000f34 <memset>
  mappages(pagetable, 0, PGSIZE, (uint64)mem, PTE_W|PTE_R|PTE_X|PTE_U);
    800015e8:	4779                	li	a4,30
    800015ea:	86ca                	mv	a3,s2
    800015ec:	6605                	lui	a2,0x1
    800015ee:	4581                	li	a1,0
    800015f0:	8552                	mv	a0,s4
    800015f2:	00000097          	auipc	ra,0x0
    800015f6:	d0c080e7          	jalr	-756(ra) # 800012fe <mappages>
  memmove(mem, src, sz);
    800015fa:	8626                	mv	a2,s1
    800015fc:	85ce                	mv	a1,s3
    800015fe:	854a                	mv	a0,s2
    80001600:	00000097          	auipc	ra,0x0
    80001604:	990080e7          	jalr	-1648(ra) # 80000f90 <memmove>
}
    80001608:	70a2                	ld	ra,40(sp)
    8000160a:	7402                	ld	s0,32(sp)
    8000160c:	64e2                	ld	s1,24(sp)
    8000160e:	6942                	ld	s2,16(sp)
    80001610:	69a2                	ld	s3,8(sp)
    80001612:	6a02                	ld	s4,0(sp)
    80001614:	6145                	add	sp,sp,48
    80001616:	8082                	ret
    panic("uvmfirst: more than a page");
    80001618:	00007517          	auipc	a0,0x7
    8000161c:	b6050513          	add	a0,a0,-1184 # 80008178 <digits+0x138>
    80001620:	fffff097          	auipc	ra,0xfffff
    80001624:	f1c080e7          	jalr	-228(ra) # 8000053c <panic>

0000000080001628 <uvmdealloc>:
// newsz.  oldsz and newsz need not be page-aligned, nor does newsz
// need to be less than oldsz.  oldsz can be larger than the actual
// process size.  Returns the new process size.
uint64
uvmdealloc(pagetable_t pagetable, uint64 oldsz, uint64 newsz)
{
    80001628:	1101                	add	sp,sp,-32
    8000162a:	ec06                	sd	ra,24(sp)
    8000162c:	e822                	sd	s0,16(sp)
    8000162e:	e426                	sd	s1,8(sp)
    80001630:	1000                	add	s0,sp,32
  if(newsz >= oldsz)
    return oldsz;
    80001632:	84ae                	mv	s1,a1
  if(newsz >= oldsz)
    80001634:	00b67d63          	bgeu	a2,a1,8000164e <uvmdealloc+0x26>
    80001638:	84b2                	mv	s1,a2

  if(PGROUNDUP(newsz) < PGROUNDUP(oldsz)){
    8000163a:	6785                	lui	a5,0x1
    8000163c:	17fd                	add	a5,a5,-1 # fff <_entry-0x7ffff001>
    8000163e:	00f60733          	add	a4,a2,a5
    80001642:	76fd                	lui	a3,0xfffff
    80001644:	8f75                	and	a4,a4,a3
    80001646:	97ae                	add	a5,a5,a1
    80001648:	8ff5                	and	a5,a5,a3
    8000164a:	00f76863          	bltu	a4,a5,8000165a <uvmdealloc+0x32>
    int npages = (PGROUNDUP(oldsz) - PGROUNDUP(newsz)) / PGSIZE;
    uvmunmap(pagetable, PGROUNDUP(newsz), npages, 1);
  }

  return newsz;
}
    8000164e:	8526                	mv	a0,s1
    80001650:	60e2                	ld	ra,24(sp)
    80001652:	6442                	ld	s0,16(sp)
    80001654:	64a2                	ld	s1,8(sp)
    80001656:	6105                	add	sp,sp,32
    80001658:	8082                	ret
    int npages = (PGROUNDUP(oldsz) - PGROUNDUP(newsz)) / PGSIZE;
    8000165a:	8f99                	sub	a5,a5,a4
    8000165c:	83b1                	srl	a5,a5,0xc
    uvmunmap(pagetable, PGROUNDUP(newsz), npages, 1);
    8000165e:	4685                	li	a3,1
    80001660:	0007861b          	sext.w	a2,a5
    80001664:	85ba                	mv	a1,a4
    80001666:	00000097          	auipc	ra,0x0
    8000166a:	e5e080e7          	jalr	-418(ra) # 800014c4 <uvmunmap>
    8000166e:	b7c5                	j	8000164e <uvmdealloc+0x26>

0000000080001670 <uvmalloc>:
  if(newsz < oldsz)
    80001670:	0ab66563          	bltu	a2,a1,8000171a <uvmalloc+0xaa>
{
    80001674:	7139                	add	sp,sp,-64
    80001676:	fc06                	sd	ra,56(sp)
    80001678:	f822                	sd	s0,48(sp)
    8000167a:	f426                	sd	s1,40(sp)
    8000167c:	f04a                	sd	s2,32(sp)
    8000167e:	ec4e                	sd	s3,24(sp)
    80001680:	e852                	sd	s4,16(sp)
    80001682:	e456                	sd	s5,8(sp)
    80001684:	e05a                	sd	s6,0(sp)
    80001686:	0080                	add	s0,sp,64
    80001688:	8aaa                	mv	s5,a0
    8000168a:	8a32                	mv	s4,a2
  oldsz = PGROUNDUP(oldsz);
    8000168c:	6785                	lui	a5,0x1
    8000168e:	17fd                	add	a5,a5,-1 # fff <_entry-0x7ffff001>
    80001690:	95be                	add	a1,a1,a5
    80001692:	77fd                	lui	a5,0xfffff
    80001694:	00f5f9b3          	and	s3,a1,a5
  for(a = oldsz; a < newsz; a += PGSIZE){
    80001698:	08c9f363          	bgeu	s3,a2,8000171e <uvmalloc+0xae>
    8000169c:	894e                	mv	s2,s3
    if(mappages(pagetable, a, PGSIZE, (uint64)mem, PTE_R|PTE_U|xperm) != 0){
    8000169e:	0126eb13          	or	s6,a3,18
    mem = kalloc();
    800016a2:	fffff097          	auipc	ra,0xfffff
    800016a6:	4b6080e7          	jalr	1206(ra) # 80000b58 <kalloc>
    800016aa:	84aa                	mv	s1,a0
    if(mem == 0){
    800016ac:	c51d                	beqz	a0,800016da <uvmalloc+0x6a>
    memset(mem, 0, PGSIZE);
    800016ae:	6605                	lui	a2,0x1
    800016b0:	4581                	li	a1,0
    800016b2:	00000097          	auipc	ra,0x0
    800016b6:	882080e7          	jalr	-1918(ra) # 80000f34 <memset>
    if(mappages(pagetable, a, PGSIZE, (uint64)mem, PTE_R|PTE_U|xperm) != 0){
    800016ba:	875a                	mv	a4,s6
    800016bc:	86a6                	mv	a3,s1
    800016be:	6605                	lui	a2,0x1
    800016c0:	85ca                	mv	a1,s2
    800016c2:	8556                	mv	a0,s5
    800016c4:	00000097          	auipc	ra,0x0
    800016c8:	c3a080e7          	jalr	-966(ra) # 800012fe <mappages>
    800016cc:	e90d                	bnez	a0,800016fe <uvmalloc+0x8e>
  for(a = oldsz; a < newsz; a += PGSIZE){
    800016ce:	6785                	lui	a5,0x1
    800016d0:	993e                	add	s2,s2,a5
    800016d2:	fd4968e3          	bltu	s2,s4,800016a2 <uvmalloc+0x32>
  return newsz;
    800016d6:	8552                	mv	a0,s4
    800016d8:	a809                	j	800016ea <uvmalloc+0x7a>
      uvmdealloc(pagetable, a, oldsz);
    800016da:	864e                	mv	a2,s3
    800016dc:	85ca                	mv	a1,s2
    800016de:	8556                	mv	a0,s5
    800016e0:	00000097          	auipc	ra,0x0
    800016e4:	f48080e7          	jalr	-184(ra) # 80001628 <uvmdealloc>
      return 0;
    800016e8:	4501                	li	a0,0
}
    800016ea:	70e2                	ld	ra,56(sp)
    800016ec:	7442                	ld	s0,48(sp)
    800016ee:	74a2                	ld	s1,40(sp)
    800016f0:	7902                	ld	s2,32(sp)
    800016f2:	69e2                	ld	s3,24(sp)
    800016f4:	6a42                	ld	s4,16(sp)
    800016f6:	6aa2                	ld	s5,8(sp)
    800016f8:	6b02                	ld	s6,0(sp)
    800016fa:	6121                	add	sp,sp,64
    800016fc:	8082                	ret
      kfree(mem);
    800016fe:	8526                	mv	a0,s1
    80001700:	fffff097          	auipc	ra,0xfffff
    80001704:	2e4080e7          	jalr	740(ra) # 800009e4 <kfree>
      uvmdealloc(pagetable, a, oldsz);
    80001708:	864e                	mv	a2,s3
    8000170a:	85ca                	mv	a1,s2
    8000170c:	8556                	mv	a0,s5
    8000170e:	00000097          	auipc	ra,0x0
    80001712:	f1a080e7          	jalr	-230(ra) # 80001628 <uvmdealloc>
      return 0;
    80001716:	4501                	li	a0,0
    80001718:	bfc9                	j	800016ea <uvmalloc+0x7a>
    return oldsz;
    8000171a:	852e                	mv	a0,a1
}
    8000171c:	8082                	ret
  return newsz;
    8000171e:	8532                	mv	a0,a2
    80001720:	b7e9                	j	800016ea <uvmalloc+0x7a>

0000000080001722 <freewalk>:

// Recursively free page-table pages.
// All leaf mappings must already have been removed.
void
freewalk(pagetable_t pagetable)
{
    80001722:	7179                	add	sp,sp,-48
    80001724:	f406                	sd	ra,40(sp)
    80001726:	f022                	sd	s0,32(sp)
    80001728:	ec26                	sd	s1,24(sp)
    8000172a:	e84a                	sd	s2,16(sp)
    8000172c:	e44e                	sd	s3,8(sp)
    8000172e:	e052                	sd	s4,0(sp)
    80001730:	1800                	add	s0,sp,48
    80001732:	8a2a                	mv	s4,a0
  // there are 2^9 = 512 PTEs in a page table.
  for(int i = 0; i < 512; i++){
    80001734:	84aa                	mv	s1,a0
    80001736:	6905                	lui	s2,0x1
    80001738:	992a                	add	s2,s2,a0
    pte_t pte = pagetable[i];
    if((pte & PTE_V) && (pte & (PTE_R|PTE_W|PTE_X)) == 0){
    8000173a:	4985                	li	s3,1
    8000173c:	a829                	j	80001756 <freewalk+0x34>
      // this PTE points to a lower-level page table.
      uint64 child = PTE2PA(pte);
    8000173e:	83a9                	srl	a5,a5,0xa
      freewalk((pagetable_t)child);
    80001740:	00c79513          	sll	a0,a5,0xc
    80001744:	00000097          	auipc	ra,0x0
    80001748:	fde080e7          	jalr	-34(ra) # 80001722 <freewalk>
      pagetable[i] = 0;
    8000174c:	0004b023          	sd	zero,0(s1)
  for(int i = 0; i < 512; i++){
    80001750:	04a1                	add	s1,s1,8
    80001752:	03248163          	beq	s1,s2,80001774 <freewalk+0x52>
    pte_t pte = pagetable[i];
    80001756:	609c                	ld	a5,0(s1)
    if((pte & PTE_V) && (pte & (PTE_R|PTE_W|PTE_X)) == 0){
    80001758:	00f7f713          	and	a4,a5,15
    8000175c:	ff3701e3          	beq	a4,s3,8000173e <freewalk+0x1c>
    } else if(pte & PTE_V){
    80001760:	8b85                	and	a5,a5,1
    80001762:	d7fd                	beqz	a5,80001750 <freewalk+0x2e>
      panic("freewalk: leaf");
    80001764:	00007517          	auipc	a0,0x7
    80001768:	a3450513          	add	a0,a0,-1484 # 80008198 <digits+0x158>
    8000176c:	fffff097          	auipc	ra,0xfffff
    80001770:	dd0080e7          	jalr	-560(ra) # 8000053c <panic>
    }
  }
  kfree((void*)pagetable);
    80001774:	8552                	mv	a0,s4
    80001776:	fffff097          	auipc	ra,0xfffff
    8000177a:	26e080e7          	jalr	622(ra) # 800009e4 <kfree>
}
    8000177e:	70a2                	ld	ra,40(sp)
    80001780:	7402                	ld	s0,32(sp)
    80001782:	64e2                	ld	s1,24(sp)
    80001784:	6942                	ld	s2,16(sp)
    80001786:	69a2                	ld	s3,8(sp)
    80001788:	6a02                	ld	s4,0(sp)
    8000178a:	6145                	add	sp,sp,48
    8000178c:	8082                	ret

000000008000178e <uvmfree>:

// Free user memory pages,
// then free page-table pages.
void
uvmfree(pagetable_t pagetable, uint64 sz)
{
    8000178e:	1101                	add	sp,sp,-32
    80001790:	ec06                	sd	ra,24(sp)
    80001792:	e822                	sd	s0,16(sp)
    80001794:	e426                	sd	s1,8(sp)
    80001796:	1000                	add	s0,sp,32
    80001798:	84aa                	mv	s1,a0
  if(sz > 0)
    8000179a:	e999                	bnez	a1,800017b0 <uvmfree+0x22>
    uvmunmap(pagetable, 0, PGROUNDUP(sz)/PGSIZE, 1);
  freewalk(pagetable);
    8000179c:	8526                	mv	a0,s1
    8000179e:	00000097          	auipc	ra,0x0
    800017a2:	f84080e7          	jalr	-124(ra) # 80001722 <freewalk>
}
    800017a6:	60e2                	ld	ra,24(sp)
    800017a8:	6442                	ld	s0,16(sp)
    800017aa:	64a2                	ld	s1,8(sp)
    800017ac:	6105                	add	sp,sp,32
    800017ae:	8082                	ret
    uvmunmap(pagetable, 0, PGROUNDUP(sz)/PGSIZE, 1);
    800017b0:	6785                	lui	a5,0x1
    800017b2:	17fd                	add	a5,a5,-1 # fff <_entry-0x7ffff001>
    800017b4:	95be                	add	a1,a1,a5
    800017b6:	4685                	li	a3,1
    800017b8:	00c5d613          	srl	a2,a1,0xc
    800017bc:	4581                	li	a1,0
    800017be:	00000097          	auipc	ra,0x0
    800017c2:	d06080e7          	jalr	-762(ra) # 800014c4 <uvmunmap>
    800017c6:	bfd9                	j	8000179c <uvmfree+0xe>

00000000800017c8 <uvmcopy>:
// physical memory.
// returns 0 on success, -1 on failure.
// frees any allocated pages on failure.
int
uvmcopy(pagetable_t old, pagetable_t new, uint64 sz)
{
    800017c8:	7139                	add	sp,sp,-64
    800017ca:	fc06                	sd	ra,56(sp)
    800017cc:	f822                	sd	s0,48(sp)
    800017ce:	f426                	sd	s1,40(sp)
    800017d0:	f04a                	sd	s2,32(sp)
    800017d2:	ec4e                	sd	s3,24(sp)
    800017d4:	e852                	sd	s4,16(sp)
    800017d6:	e456                	sd	s5,8(sp)
    800017d8:	e05a                	sd	s6,0(sp)
    800017da:	0080                	add	s0,sp,64
  pte_t *pte;
  uint64 pa, i;
  uint flags;

  for(i = 0; i < sz; i += PGSIZE){
    800017dc:	c645                	beqz	a2,80001884 <uvmcopy+0xbc>
    800017de:	8aaa                	mv	s5,a0
    800017e0:	8a2e                	mv	s4,a1
    800017e2:	89b2                	mv	s3,a2
    800017e4:	4481                	li	s1,0
    if((pte = walk(old, i, 0)) == 0)
    800017e6:	4601                	li	a2,0
    800017e8:	85a6                	mv	a1,s1
    800017ea:	8556                	mv	a0,s5
    800017ec:	00000097          	auipc	ra,0x0
    800017f0:	a2a080e7          	jalr	-1494(ra) # 80001216 <walk>
    800017f4:	c139                	beqz	a0,8000183a <uvmcopy+0x72>
      panic("uvmcopy: pte should exist");
    if((*pte & PTE_V) == 0)
    800017f6:	6118                	ld	a4,0(a0)
    800017f8:	00177793          	and	a5,a4,1
    800017fc:	c7b9                	beqz	a5,8000184a <uvmcopy+0x82>
      panic("uvmcopy: page not present");
    pa = PTE2PA(*pte);
    800017fe:	00a75913          	srl	s2,a4,0xa
    80001802:	0932                	sll	s2,s2,0xc

    *pte = (*pte & ~PTE_W) | PTE_COW;
    80001804:	fdb77713          	and	a4,a4,-37
    80001808:	02076713          	or	a4,a4,32
    8000180c:	e118                	sd	a4,0(a0)
    flags = PTE_FLAGS(*pte);
    if(mappages(new, i, PGSIZE, pa, flags) != 0){
    8000180e:	3fb77713          	and	a4,a4,1019
    80001812:	86ca                	mv	a3,s2
    80001814:	6605                	lui	a2,0x1
    80001816:	85a6                	mv	a1,s1
    80001818:	8552                	mv	a0,s4
    8000181a:	00000097          	auipc	ra,0x0
    8000181e:	ae4080e7          	jalr	-1308(ra) # 800012fe <mappages>
    80001822:	8b2a                	mv	s6,a0
    80001824:	e91d                	bnez	a0,8000185a <uvmcopy+0x92>
      goto err;
    }
    addReference((void*)pa);
    80001826:	854a                	mv	a0,s2
    80001828:	fffff097          	auipc	ra,0xfffff
    8000182c:	3ac080e7          	jalr	940(ra) # 80000bd4 <addReference>
  for(i = 0; i < sz; i += PGSIZE){
    80001830:	6785                	lui	a5,0x1
    80001832:	94be                	add	s1,s1,a5
    80001834:	fb34e9e3          	bltu	s1,s3,800017e6 <uvmcopy+0x1e>
    80001838:	a81d                	j	8000186e <uvmcopy+0xa6>
      panic("uvmcopy: pte should exist");
    8000183a:	00007517          	auipc	a0,0x7
    8000183e:	96e50513          	add	a0,a0,-1682 # 800081a8 <digits+0x168>
    80001842:	fffff097          	auipc	ra,0xfffff
    80001846:	cfa080e7          	jalr	-774(ra) # 8000053c <panic>
      panic("uvmcopy: page not present");
    8000184a:	00007517          	auipc	a0,0x7
    8000184e:	97e50513          	add	a0,a0,-1666 # 800081c8 <digits+0x188>
    80001852:	fffff097          	auipc	ra,0xfffff
    80001856:	cea080e7          	jalr	-790(ra) # 8000053c <panic>
  }
  return 0;

 err:
  uvmunmap(new, 0, i / PGSIZE, 1);
    8000185a:	4685                	li	a3,1
    8000185c:	00c4d613          	srl	a2,s1,0xc
    80001860:	4581                	li	a1,0
    80001862:	8552                	mv	a0,s4
    80001864:	00000097          	auipc	ra,0x0
    80001868:	c60080e7          	jalr	-928(ra) # 800014c4 <uvmunmap>
  return -1;
    8000186c:	5b7d                	li	s6,-1
}
    8000186e:	855a                	mv	a0,s6
    80001870:	70e2                	ld	ra,56(sp)
    80001872:	7442                	ld	s0,48(sp)
    80001874:	74a2                	ld	s1,40(sp)
    80001876:	7902                	ld	s2,32(sp)
    80001878:	69e2                	ld	s3,24(sp)
    8000187a:	6a42                	ld	s4,16(sp)
    8000187c:	6aa2                	ld	s5,8(sp)
    8000187e:	6b02                	ld	s6,0(sp)
    80001880:	6121                	add	sp,sp,64
    80001882:	8082                	ret
  return 0;
    80001884:	4b01                	li	s6,0
    80001886:	b7e5                	j	8000186e <uvmcopy+0xa6>

0000000080001888 <uvmclear>:

// mark a PTE invalid for user access.
// used by exec for the user stack guard page.
void
uvmclear(pagetable_t pagetable, uint64 va)
{
    80001888:	1141                	add	sp,sp,-16
    8000188a:	e406                	sd	ra,8(sp)
    8000188c:	e022                	sd	s0,0(sp)
    8000188e:	0800                	add	s0,sp,16
  pte_t *pte;
  
  pte = walk(pagetable, va, 0);
    80001890:	4601                	li	a2,0
    80001892:	00000097          	auipc	ra,0x0
    80001896:	984080e7          	jalr	-1660(ra) # 80001216 <walk>
  if(pte == 0)
    8000189a:	c901                	beqz	a0,800018aa <uvmclear+0x22>
    panic("uvmclear");
  *pte &= ~PTE_U;
    8000189c:	611c                	ld	a5,0(a0)
    8000189e:	9bbd                	and	a5,a5,-17
    800018a0:	e11c                	sd	a5,0(a0)
}
    800018a2:	60a2                	ld	ra,8(sp)
    800018a4:	6402                	ld	s0,0(sp)
    800018a6:	0141                	add	sp,sp,16
    800018a8:	8082                	ret
    panic("uvmclear");
    800018aa:	00007517          	auipc	a0,0x7
    800018ae:	93e50513          	add	a0,a0,-1730 # 800081e8 <digits+0x1a8>
    800018b2:	fffff097          	auipc	ra,0xfffff
    800018b6:	c8a080e7          	jalr	-886(ra) # 8000053c <panic>

00000000800018ba <copyout>:
// Copy from kernel to user.
// Copy len bytes from src to virtual address dstva in a given page table.
// Return 0 on success, -1 on error.
int
copyout(pagetable_t pagetable, uint64 dstva, char *src, uint64 len)
{
    800018ba:	715d                	add	sp,sp,-80
    800018bc:	e486                	sd	ra,72(sp)
    800018be:	e0a2                	sd	s0,64(sp)
    800018c0:	fc26                	sd	s1,56(sp)
    800018c2:	f84a                	sd	s2,48(sp)
    800018c4:	f44e                	sd	s3,40(sp)
    800018c6:	f052                	sd	s4,32(sp)
    800018c8:	ec56                	sd	s5,24(sp)
    800018ca:	e85a                	sd	s6,16(sp)
    800018cc:	e45e                	sd	s7,8(sp)
    800018ce:	e062                	sd	s8,0(sp)
    800018d0:	0880                	add	s0,sp,80
    800018d2:	8b2a                	mv	s6,a0
    800018d4:	8c2e                	mv	s8,a1
    800018d6:	8a32                	mv	s4,a2
    800018d8:	89b6                	mv	s3,a3
  uint64 n, va0, pa0;

  pagefhandler(pagetable,dstva); // Makes page fault exception if it is a cow page
    800018da:	fffff097          	auipc	ra,0xfffff
    800018de:	40e080e7          	jalr	1038(ra) # 80000ce8 <pagefhandler>

  while(len > 0){
    800018e2:	04098863          	beqz	s3,80001932 <copyout+0x78>
    va0 = PGROUNDDOWN(dstva);
    800018e6:	7bfd                	lui	s7,0xfffff
    pa0 = walkaddr(pagetable, va0);
    if(pa0 == 0)
      return -1;
    n = PGSIZE - (dstva - va0);
    800018e8:	6a85                	lui	s5,0x1
    800018ea:	a015                	j	8000190e <copyout+0x54>
    if(n > len)
      n = len;
    memmove((void *)(pa0 + (dstva - va0)), src, n);
    800018ec:	9562                	add	a0,a0,s8
    800018ee:	0004861b          	sext.w	a2,s1
    800018f2:	85d2                	mv	a1,s4
    800018f4:	41250533          	sub	a0,a0,s2
    800018f8:	fffff097          	auipc	ra,0xfffff
    800018fc:	698080e7          	jalr	1688(ra) # 80000f90 <memmove>

    len -= n;
    80001900:	409989b3          	sub	s3,s3,s1
    src += n;
    80001904:	9a26                	add	s4,s4,s1
    dstva = va0 + PGSIZE;
    80001906:	01590c33          	add	s8,s2,s5
  while(len > 0){
    8000190a:	02098263          	beqz	s3,8000192e <copyout+0x74>
    va0 = PGROUNDDOWN(dstva);
    8000190e:	017c7933          	and	s2,s8,s7
    pa0 = walkaddr(pagetable, va0);
    80001912:	85ca                	mv	a1,s2
    80001914:	855a                	mv	a0,s6
    80001916:	00000097          	auipc	ra,0x0
    8000191a:	9a6080e7          	jalr	-1626(ra) # 800012bc <walkaddr>
    if(pa0 == 0)
    8000191e:	cd01                	beqz	a0,80001936 <copyout+0x7c>
    n = PGSIZE - (dstva - va0);
    80001920:	418904b3          	sub	s1,s2,s8
    80001924:	94d6                	add	s1,s1,s5
    80001926:	fc99f3e3          	bgeu	s3,s1,800018ec <copyout+0x32>
    8000192a:	84ce                	mv	s1,s3
    8000192c:	b7c1                	j	800018ec <copyout+0x32>
  }
  return 0;
    8000192e:	4501                	li	a0,0
    80001930:	a021                	j	80001938 <copyout+0x7e>
    80001932:	4501                	li	a0,0
    80001934:	a011                	j	80001938 <copyout+0x7e>
      return -1;
    80001936:	557d                	li	a0,-1
}
    80001938:	60a6                	ld	ra,72(sp)
    8000193a:	6406                	ld	s0,64(sp)
    8000193c:	74e2                	ld	s1,56(sp)
    8000193e:	7942                	ld	s2,48(sp)
    80001940:	79a2                	ld	s3,40(sp)
    80001942:	7a02                	ld	s4,32(sp)
    80001944:	6ae2                	ld	s5,24(sp)
    80001946:	6b42                	ld	s6,16(sp)
    80001948:	6ba2                	ld	s7,8(sp)
    8000194a:	6c02                	ld	s8,0(sp)
    8000194c:	6161                	add	sp,sp,80
    8000194e:	8082                	ret

0000000080001950 <copyin>:
int
copyin(pagetable_t pagetable, char *dst, uint64 srcva, uint64 len)
{
  uint64 n, va0, pa0;

  while(len > 0){
    80001950:	caa5                	beqz	a3,800019c0 <copyin+0x70>
{
    80001952:	715d                	add	sp,sp,-80
    80001954:	e486                	sd	ra,72(sp)
    80001956:	e0a2                	sd	s0,64(sp)
    80001958:	fc26                	sd	s1,56(sp)
    8000195a:	f84a                	sd	s2,48(sp)
    8000195c:	f44e                	sd	s3,40(sp)
    8000195e:	f052                	sd	s4,32(sp)
    80001960:	ec56                	sd	s5,24(sp)
    80001962:	e85a                	sd	s6,16(sp)
    80001964:	e45e                	sd	s7,8(sp)
    80001966:	e062                	sd	s8,0(sp)
    80001968:	0880                	add	s0,sp,80
    8000196a:	8b2a                	mv	s6,a0
    8000196c:	8a2e                	mv	s4,a1
    8000196e:	8c32                	mv	s8,a2
    80001970:	89b6                	mv	s3,a3
    va0 = PGROUNDDOWN(srcva);
    80001972:	7bfd                	lui	s7,0xfffff
    pa0 = walkaddr(pagetable, va0);
    if(pa0 == 0)
      return -1;
    n = PGSIZE - (srcva - va0);
    80001974:	6a85                	lui	s5,0x1
    80001976:	a01d                	j	8000199c <copyin+0x4c>
    if(n > len)
      n = len;
    memmove(dst, (void *)(pa0 + (srcva - va0)), n);
    80001978:	018505b3          	add	a1,a0,s8
    8000197c:	0004861b          	sext.w	a2,s1
    80001980:	412585b3          	sub	a1,a1,s2
    80001984:	8552                	mv	a0,s4
    80001986:	fffff097          	auipc	ra,0xfffff
    8000198a:	60a080e7          	jalr	1546(ra) # 80000f90 <memmove>

    len -= n;
    8000198e:	409989b3          	sub	s3,s3,s1
    dst += n;
    80001992:	9a26                	add	s4,s4,s1
    srcva = va0 + PGSIZE;
    80001994:	01590c33          	add	s8,s2,s5
  while(len > 0){
    80001998:	02098263          	beqz	s3,800019bc <copyin+0x6c>
    va0 = PGROUNDDOWN(srcva);
    8000199c:	017c7933          	and	s2,s8,s7
    pa0 = walkaddr(pagetable, va0);
    800019a0:	85ca                	mv	a1,s2
    800019a2:	855a                	mv	a0,s6
    800019a4:	00000097          	auipc	ra,0x0
    800019a8:	918080e7          	jalr	-1768(ra) # 800012bc <walkaddr>
    if(pa0 == 0)
    800019ac:	cd01                	beqz	a0,800019c4 <copyin+0x74>
    n = PGSIZE - (srcva - va0);
    800019ae:	418904b3          	sub	s1,s2,s8
    800019b2:	94d6                	add	s1,s1,s5
    800019b4:	fc99f2e3          	bgeu	s3,s1,80001978 <copyin+0x28>
    800019b8:	84ce                	mv	s1,s3
    800019ba:	bf7d                	j	80001978 <copyin+0x28>
  }
  return 0;
    800019bc:	4501                	li	a0,0
    800019be:	a021                	j	800019c6 <copyin+0x76>
    800019c0:	4501                	li	a0,0
}
    800019c2:	8082                	ret
      return -1;
    800019c4:	557d                	li	a0,-1
}
    800019c6:	60a6                	ld	ra,72(sp)
    800019c8:	6406                	ld	s0,64(sp)
    800019ca:	74e2                	ld	s1,56(sp)
    800019cc:	7942                	ld	s2,48(sp)
    800019ce:	79a2                	ld	s3,40(sp)
    800019d0:	7a02                	ld	s4,32(sp)
    800019d2:	6ae2                	ld	s5,24(sp)
    800019d4:	6b42                	ld	s6,16(sp)
    800019d6:	6ba2                	ld	s7,8(sp)
    800019d8:	6c02                	ld	s8,0(sp)
    800019da:	6161                	add	sp,sp,80
    800019dc:	8082                	ret

00000000800019de <copyinstr>:
copyinstr(pagetable_t pagetable, char *dst, uint64 srcva, uint64 max)
{
  uint64 n, va0, pa0;
  int got_null = 0;

  while(got_null == 0 && max > 0){
    800019de:	c2dd                	beqz	a3,80001a84 <copyinstr+0xa6>
{
    800019e0:	715d                	add	sp,sp,-80
    800019e2:	e486                	sd	ra,72(sp)
    800019e4:	e0a2                	sd	s0,64(sp)
    800019e6:	fc26                	sd	s1,56(sp)
    800019e8:	f84a                	sd	s2,48(sp)
    800019ea:	f44e                	sd	s3,40(sp)
    800019ec:	f052                	sd	s4,32(sp)
    800019ee:	ec56                	sd	s5,24(sp)
    800019f0:	e85a                	sd	s6,16(sp)
    800019f2:	e45e                	sd	s7,8(sp)
    800019f4:	0880                	add	s0,sp,80
    800019f6:	8a2a                	mv	s4,a0
    800019f8:	8b2e                	mv	s6,a1
    800019fa:	8bb2                	mv	s7,a2
    800019fc:	84b6                	mv	s1,a3
    va0 = PGROUNDDOWN(srcva);
    800019fe:	7afd                	lui	s5,0xfffff
    pa0 = walkaddr(pagetable, va0);
    if(pa0 == 0)
      return -1;
    n = PGSIZE - (srcva - va0);
    80001a00:	6985                	lui	s3,0x1
    80001a02:	a02d                	j	80001a2c <copyinstr+0x4e>
      n = max;

    char *p = (char *) (pa0 + (srcva - va0));
    while(n > 0){
      if(*p == '\0'){
        *dst = '\0';
    80001a04:	00078023          	sb	zero,0(a5) # 1000 <_entry-0x7ffff000>
    80001a08:	4785                	li	a5,1
      dst++;
    }

    srcva = va0 + PGSIZE;
  }
  if(got_null){
    80001a0a:	37fd                	addw	a5,a5,-1
    80001a0c:	0007851b          	sext.w	a0,a5
    return 0;
  } else {
    return -1;
  }
    80001a10:	60a6                	ld	ra,72(sp)
    80001a12:	6406                	ld	s0,64(sp)
    80001a14:	74e2                	ld	s1,56(sp)
    80001a16:	7942                	ld	s2,48(sp)
    80001a18:	79a2                	ld	s3,40(sp)
    80001a1a:	7a02                	ld	s4,32(sp)
    80001a1c:	6ae2                	ld	s5,24(sp)
    80001a1e:	6b42                	ld	s6,16(sp)
    80001a20:	6ba2                	ld	s7,8(sp)
    80001a22:	6161                	add	sp,sp,80
    80001a24:	8082                	ret
    srcva = va0 + PGSIZE;
    80001a26:	01390bb3          	add	s7,s2,s3
  while(got_null == 0 && max > 0){
    80001a2a:	c8a9                	beqz	s1,80001a7c <copyinstr+0x9e>
    va0 = PGROUNDDOWN(srcva);
    80001a2c:	015bf933          	and	s2,s7,s5
    pa0 = walkaddr(pagetable, va0);
    80001a30:	85ca                	mv	a1,s2
    80001a32:	8552                	mv	a0,s4
    80001a34:	00000097          	auipc	ra,0x0
    80001a38:	888080e7          	jalr	-1912(ra) # 800012bc <walkaddr>
    if(pa0 == 0)
    80001a3c:	c131                	beqz	a0,80001a80 <copyinstr+0xa2>
    n = PGSIZE - (srcva - va0);
    80001a3e:	417906b3          	sub	a3,s2,s7
    80001a42:	96ce                	add	a3,a3,s3
    80001a44:	00d4f363          	bgeu	s1,a3,80001a4a <copyinstr+0x6c>
    80001a48:	86a6                	mv	a3,s1
    char *p = (char *) (pa0 + (srcva - va0));
    80001a4a:	955e                	add	a0,a0,s7
    80001a4c:	41250533          	sub	a0,a0,s2
    while(n > 0){
    80001a50:	daf9                	beqz	a3,80001a26 <copyinstr+0x48>
    80001a52:	87da                	mv	a5,s6
    80001a54:	885a                	mv	a6,s6
      if(*p == '\0'){
    80001a56:	41650633          	sub	a2,a0,s6
    while(n > 0){
    80001a5a:	96da                	add	a3,a3,s6
    80001a5c:	85be                	mv	a1,a5
      if(*p == '\0'){
    80001a5e:	00f60733          	add	a4,a2,a5
    80001a62:	00074703          	lbu	a4,0(a4) # fffffffffffff000 <end+0xffffffff7ffbc868>
    80001a66:	df59                	beqz	a4,80001a04 <copyinstr+0x26>
        *dst = *p;
    80001a68:	00e78023          	sb	a4,0(a5)
      dst++;
    80001a6c:	0785                	add	a5,a5,1
    while(n > 0){
    80001a6e:	fed797e3          	bne	a5,a3,80001a5c <copyinstr+0x7e>
    80001a72:	14fd                	add	s1,s1,-1
    80001a74:	94c2                	add	s1,s1,a6
      --max;
    80001a76:	8c8d                	sub	s1,s1,a1
      dst++;
    80001a78:	8b3e                	mv	s6,a5
    80001a7a:	b775                	j	80001a26 <copyinstr+0x48>
    80001a7c:	4781                	li	a5,0
    80001a7e:	b771                	j	80001a0a <copyinstr+0x2c>
      return -1;
    80001a80:	557d                	li	a0,-1
    80001a82:	b779                	j	80001a10 <copyinstr+0x32>
  int got_null = 0;
    80001a84:	4781                	li	a5,0
  if(got_null){
    80001a86:	37fd                	addw	a5,a5,-1
    80001a88:	0007851b          	sext.w	a0,a5
    80001a8c:	8082                	ret

0000000080001a8e <proc_mapstacks>:

// Allocate a page for each process's kernel stack.
// Map it high in memory, followed by an invalid
// guard page.
void proc_mapstacks(pagetable_t kpgtbl)
{
    80001a8e:	7139                	add	sp,sp,-64
    80001a90:	fc06                	sd	ra,56(sp)
    80001a92:	f822                	sd	s0,48(sp)
    80001a94:	f426                	sd	s1,40(sp)
    80001a96:	f04a                	sd	s2,32(sp)
    80001a98:	ec4e                	sd	s3,24(sp)
    80001a9a:	e852                	sd	s4,16(sp)
    80001a9c:	e456                	sd	s5,8(sp)
    80001a9e:	e05a                	sd	s6,0(sp)
    80001aa0:	0080                	add	s0,sp,64
    80001aa2:	89aa                	mv	s3,a0
  struct proc *p;

  for (p = proc; p < &proc[NPROC]; p++)
    80001aa4:	0002f497          	auipc	s1,0x2f
    80001aa8:	51448493          	add	s1,s1,1300 # 80030fb8 <proc>
  {
    char *pa = kalloc();
    if (pa == 0)
      panic("kalloc");
    uint64 va = KSTACK((int)(p - proc));
    80001aac:	8b26                	mv	s6,s1
    80001aae:	00006a97          	auipc	s5,0x6
    80001ab2:	552a8a93          	add	s5,s5,1362 # 80008000 <etext>
    80001ab6:	04000937          	lui	s2,0x4000
    80001aba:	197d                	add	s2,s2,-1 # 3ffffff <_entry-0x7c000001>
    80001abc:	0932                	sll	s2,s2,0xc
  for (p = proc; p < &proc[NPROC]; p++)
    80001abe:	00036a17          	auipc	s4,0x36
    80001ac2:	8faa0a13          	add	s4,s4,-1798 # 800373b8 <tickslock>
    char *pa = kalloc();
    80001ac6:	fffff097          	auipc	ra,0xfffff
    80001aca:	092080e7          	jalr	146(ra) # 80000b58 <kalloc>
    80001ace:	862a                	mv	a2,a0
    if (pa == 0)
    80001ad0:	c131                	beqz	a0,80001b14 <proc_mapstacks+0x86>
    uint64 va = KSTACK((int)(p - proc));
    80001ad2:	416485b3          	sub	a1,s1,s6
    80001ad6:	8591                	sra	a1,a1,0x4
    80001ad8:	000ab783          	ld	a5,0(s5)
    80001adc:	02f585b3          	mul	a1,a1,a5
    80001ae0:	2585                	addw	a1,a1,1
    80001ae2:	00d5959b          	sllw	a1,a1,0xd
    kvmmap(kpgtbl, va, (uint64)pa, PGSIZE, PTE_R | PTE_W);
    80001ae6:	4719                	li	a4,6
    80001ae8:	6685                	lui	a3,0x1
    80001aea:	40b905b3          	sub	a1,s2,a1
    80001aee:	854e                	mv	a0,s3
    80001af0:	00000097          	auipc	ra,0x0
    80001af4:	8ae080e7          	jalr	-1874(ra) # 8000139e <kvmmap>
  for (p = proc; p < &proc[NPROC]; p++)
    80001af8:	19048493          	add	s1,s1,400
    80001afc:	fd4495e3          	bne	s1,s4,80001ac6 <proc_mapstacks+0x38>
  }
}
    80001b00:	70e2                	ld	ra,56(sp)
    80001b02:	7442                	ld	s0,48(sp)
    80001b04:	74a2                	ld	s1,40(sp)
    80001b06:	7902                	ld	s2,32(sp)
    80001b08:	69e2                	ld	s3,24(sp)
    80001b0a:	6a42                	ld	s4,16(sp)
    80001b0c:	6aa2                	ld	s5,8(sp)
    80001b0e:	6b02                	ld	s6,0(sp)
    80001b10:	6121                	add	sp,sp,64
    80001b12:	8082                	ret
      panic("kalloc");
    80001b14:	00006517          	auipc	a0,0x6
    80001b18:	6e450513          	add	a0,a0,1764 # 800081f8 <digits+0x1b8>
    80001b1c:	fffff097          	auipc	ra,0xfffff
    80001b20:	a20080e7          	jalr	-1504(ra) # 8000053c <panic>

0000000080001b24 <procinit>:

// initialize the proc table.
void procinit(void)
{
    80001b24:	7139                	add	sp,sp,-64
    80001b26:	fc06                	sd	ra,56(sp)
    80001b28:	f822                	sd	s0,48(sp)
    80001b2a:	f426                	sd	s1,40(sp)
    80001b2c:	f04a                	sd	s2,32(sp)
    80001b2e:	ec4e                	sd	s3,24(sp)
    80001b30:	e852                	sd	s4,16(sp)
    80001b32:	e456                	sd	s5,8(sp)
    80001b34:	e05a                	sd	s6,0(sp)
    80001b36:	0080                	add	s0,sp,64
  struct proc *p;

  initlock(&pid_lock, "nextpid");
    80001b38:	00006597          	auipc	a1,0x6
    80001b3c:	6c858593          	add	a1,a1,1736 # 80008200 <digits+0x1c0>
    80001b40:	0002f517          	auipc	a0,0x2f
    80001b44:	04850513          	add	a0,a0,72 # 80030b88 <pid_lock>
    80001b48:	fffff097          	auipc	ra,0xfffff
    80001b4c:	260080e7          	jalr	608(ra) # 80000da8 <initlock>
  initlock(&wait_lock, "wait_lock");
    80001b50:	00006597          	auipc	a1,0x6
    80001b54:	6b858593          	add	a1,a1,1720 # 80008208 <digits+0x1c8>
    80001b58:	0002f517          	auipc	a0,0x2f
    80001b5c:	04850513          	add	a0,a0,72 # 80030ba0 <wait_lock>
    80001b60:	fffff097          	auipc	ra,0xfffff
    80001b64:	248080e7          	jalr	584(ra) # 80000da8 <initlock>
  for (p = proc; p < &proc[NPROC]; p++)
    80001b68:	0002f497          	auipc	s1,0x2f
    80001b6c:	45048493          	add	s1,s1,1104 # 80030fb8 <proc>
  {
    initlock(&p->lock, "proc");
    80001b70:	00006b17          	auipc	s6,0x6
    80001b74:	6a8b0b13          	add	s6,s6,1704 # 80008218 <digits+0x1d8>
    p->state = UNUSED;
    p->kstack = KSTACK((int)(p - proc));
    80001b78:	8aa6                	mv	s5,s1
    80001b7a:	00006a17          	auipc	s4,0x6
    80001b7e:	486a0a13          	add	s4,s4,1158 # 80008000 <etext>
    80001b82:	04000937          	lui	s2,0x4000
    80001b86:	197d                	add	s2,s2,-1 # 3ffffff <_entry-0x7c000001>
    80001b88:	0932                	sll	s2,s2,0xc
  for (p = proc; p < &proc[NPROC]; p++)
    80001b8a:	00036997          	auipc	s3,0x36
    80001b8e:	82e98993          	add	s3,s3,-2002 # 800373b8 <tickslock>
    initlock(&p->lock, "proc");
    80001b92:	85da                	mv	a1,s6
    80001b94:	8526                	mv	a0,s1
    80001b96:	fffff097          	auipc	ra,0xfffff
    80001b9a:	212080e7          	jalr	530(ra) # 80000da8 <initlock>
    p->state = UNUSED;
    80001b9e:	0004ac23          	sw	zero,24(s1)
    p->kstack = KSTACK((int)(p - proc));
    80001ba2:	415487b3          	sub	a5,s1,s5
    80001ba6:	8791                	sra	a5,a5,0x4
    80001ba8:	000a3703          	ld	a4,0(s4)
    80001bac:	02e787b3          	mul	a5,a5,a4
    80001bb0:	2785                	addw	a5,a5,1
    80001bb2:	00d7979b          	sllw	a5,a5,0xd
    80001bb6:	40f907b3          	sub	a5,s2,a5
    80001bba:	e0bc                	sd	a5,64(s1)
  for (p = proc; p < &proc[NPROC]; p++)
    80001bbc:	19048493          	add	s1,s1,400
    80001bc0:	fd3499e3          	bne	s1,s3,80001b92 <procinit+0x6e>
  }
}
    80001bc4:	70e2                	ld	ra,56(sp)
    80001bc6:	7442                	ld	s0,48(sp)
    80001bc8:	74a2                	ld	s1,40(sp)
    80001bca:	7902                	ld	s2,32(sp)
    80001bcc:	69e2                	ld	s3,24(sp)
    80001bce:	6a42                	ld	s4,16(sp)
    80001bd0:	6aa2                	ld	s5,8(sp)
    80001bd2:	6b02                	ld	s6,0(sp)
    80001bd4:	6121                	add	sp,sp,64
    80001bd6:	8082                	ret

0000000080001bd8 <cpuid>:

// Must be called with interrupts disabled,
// to prevent race with process being moved
// to a different CPU.
int cpuid()
{
    80001bd8:	1141                	add	sp,sp,-16
    80001bda:	e422                	sd	s0,8(sp)
    80001bdc:	0800                	add	s0,sp,16
  asm volatile("mv %0, tp" : "=r" (x) );
    80001bde:	8512                	mv	a0,tp
  int id = r_tp();
  return id;
}
    80001be0:	2501                	sext.w	a0,a0
    80001be2:	6422                	ld	s0,8(sp)
    80001be4:	0141                	add	sp,sp,16
    80001be6:	8082                	ret

0000000080001be8 <mycpu>:

// Return this CPU's cpu struct.
// Interrupts must be disabled.
struct cpu *
mycpu(void)
{
    80001be8:	1141                	add	sp,sp,-16
    80001bea:	e422                	sd	s0,8(sp)
    80001bec:	0800                	add	s0,sp,16
    80001bee:	8792                	mv	a5,tp
  int id = cpuid();
  struct cpu *c = &cpus[id];
    80001bf0:	2781                	sext.w	a5,a5
    80001bf2:	079e                	sll	a5,a5,0x7
  return c;
}
    80001bf4:	0002f517          	auipc	a0,0x2f
    80001bf8:	fc450513          	add	a0,a0,-60 # 80030bb8 <cpus>
    80001bfc:	953e                	add	a0,a0,a5
    80001bfe:	6422                	ld	s0,8(sp)
    80001c00:	0141                	add	sp,sp,16
    80001c02:	8082                	ret

0000000080001c04 <myproc>:

// Return the current struct proc *, or zero if none.
struct proc *
myproc(void)
{
    80001c04:	1101                	add	sp,sp,-32
    80001c06:	ec06                	sd	ra,24(sp)
    80001c08:	e822                	sd	s0,16(sp)
    80001c0a:	e426                	sd	s1,8(sp)
    80001c0c:	1000                	add	s0,sp,32
  push_off();
    80001c0e:	fffff097          	auipc	ra,0xfffff
    80001c12:	1de080e7          	jalr	478(ra) # 80000dec <push_off>
    80001c16:	8792                	mv	a5,tp
  struct cpu *c = mycpu();
  struct proc *p = c->proc;
    80001c18:	2781                	sext.w	a5,a5
    80001c1a:	079e                	sll	a5,a5,0x7
    80001c1c:	0002f717          	auipc	a4,0x2f
    80001c20:	f6c70713          	add	a4,a4,-148 # 80030b88 <pid_lock>
    80001c24:	97ba                	add	a5,a5,a4
    80001c26:	7b84                	ld	s1,48(a5)
  pop_off();
    80001c28:	fffff097          	auipc	ra,0xfffff
    80001c2c:	264080e7          	jalr	612(ra) # 80000e8c <pop_off>
  return p;
}
    80001c30:	8526                	mv	a0,s1
    80001c32:	60e2                	ld	ra,24(sp)
    80001c34:	6442                	ld	s0,16(sp)
    80001c36:	64a2                	ld	s1,8(sp)
    80001c38:	6105                	add	sp,sp,32
    80001c3a:	8082                	ret

0000000080001c3c <forkret>:
}

// A fork child's very first scheduling by scheduler()
// will swtch to forkret.
void forkret(void)
{
    80001c3c:	1141                	add	sp,sp,-16
    80001c3e:	e406                	sd	ra,8(sp)
    80001c40:	e022                	sd	s0,0(sp)
    80001c42:	0800                	add	s0,sp,16
  static int first = 1;

  // Still holding p->lock from scheduler.
  release(&myproc()->lock);
    80001c44:	00000097          	auipc	ra,0x0
    80001c48:	fc0080e7          	jalr	-64(ra) # 80001c04 <myproc>
    80001c4c:	fffff097          	auipc	ra,0xfffff
    80001c50:	2a0080e7          	jalr	672(ra) # 80000eec <release>

  if (first)
    80001c54:	00007797          	auipc	a5,0x7
    80001c58:	c2c7a783          	lw	a5,-980(a5) # 80008880 <first.1>
    80001c5c:	eb89                	bnez	a5,80001c6e <forkret+0x32>
    // be run from main().
    first = 0;
    fsinit(ROOTDEV);
  }

  usertrapret();
    80001c5e:	00001097          	auipc	ra,0x1
    80001c62:	f70080e7          	jalr	-144(ra) # 80002bce <usertrapret>
}
    80001c66:	60a2                	ld	ra,8(sp)
    80001c68:	6402                	ld	s0,0(sp)
    80001c6a:	0141                	add	sp,sp,16
    80001c6c:	8082                	ret
    first = 0;
    80001c6e:	00007797          	auipc	a5,0x7
    80001c72:	c007a923          	sw	zero,-1006(a5) # 80008880 <first.1>
    fsinit(ROOTDEV);
    80001c76:	4505                	li	a0,1
    80001c78:	00002097          	auipc	ra,0x2
    80001c7c:	e30080e7          	jalr	-464(ra) # 80003aa8 <fsinit>
    80001c80:	bff9                	j	80001c5e <forkret+0x22>

0000000080001c82 <allocpid>:
{
    80001c82:	1101                	add	sp,sp,-32
    80001c84:	ec06                	sd	ra,24(sp)
    80001c86:	e822                	sd	s0,16(sp)
    80001c88:	e426                	sd	s1,8(sp)
    80001c8a:	e04a                	sd	s2,0(sp)
    80001c8c:	1000                	add	s0,sp,32
  acquire(&pid_lock);
    80001c8e:	0002f917          	auipc	s2,0x2f
    80001c92:	efa90913          	add	s2,s2,-262 # 80030b88 <pid_lock>
    80001c96:	854a                	mv	a0,s2
    80001c98:	fffff097          	auipc	ra,0xfffff
    80001c9c:	1a0080e7          	jalr	416(ra) # 80000e38 <acquire>
  pid = nextpid;
    80001ca0:	00007797          	auipc	a5,0x7
    80001ca4:	be478793          	add	a5,a5,-1052 # 80008884 <nextpid>
    80001ca8:	4384                	lw	s1,0(a5)
  nextpid = nextpid + 1;
    80001caa:	0014871b          	addw	a4,s1,1
    80001cae:	c398                	sw	a4,0(a5)
  release(&pid_lock);
    80001cb0:	854a                	mv	a0,s2
    80001cb2:	fffff097          	auipc	ra,0xfffff
    80001cb6:	23a080e7          	jalr	570(ra) # 80000eec <release>
}
    80001cba:	8526                	mv	a0,s1
    80001cbc:	60e2                	ld	ra,24(sp)
    80001cbe:	6442                	ld	s0,16(sp)
    80001cc0:	64a2                	ld	s1,8(sp)
    80001cc2:	6902                	ld	s2,0(sp)
    80001cc4:	6105                	add	sp,sp,32
    80001cc6:	8082                	ret

0000000080001cc8 <proc_pagetable>:
{
    80001cc8:	1101                	add	sp,sp,-32
    80001cca:	ec06                	sd	ra,24(sp)
    80001ccc:	e822                	sd	s0,16(sp)
    80001cce:	e426                	sd	s1,8(sp)
    80001cd0:	e04a                	sd	s2,0(sp)
    80001cd2:	1000                	add	s0,sp,32
    80001cd4:	892a                	mv	s2,a0
  pagetable = uvmcreate();
    80001cd6:	00000097          	auipc	ra,0x0
    80001cda:	8b2080e7          	jalr	-1870(ra) # 80001588 <uvmcreate>
    80001cde:	84aa                	mv	s1,a0
  if (pagetable == 0)
    80001ce0:	c121                	beqz	a0,80001d20 <proc_pagetable+0x58>
  if (mappages(pagetable, TRAMPOLINE, PGSIZE,
    80001ce2:	4729                	li	a4,10
    80001ce4:	00005697          	auipc	a3,0x5
    80001ce8:	31c68693          	add	a3,a3,796 # 80007000 <_trampoline>
    80001cec:	6605                	lui	a2,0x1
    80001cee:	040005b7          	lui	a1,0x4000
    80001cf2:	15fd                	add	a1,a1,-1 # 3ffffff <_entry-0x7c000001>
    80001cf4:	05b2                	sll	a1,a1,0xc
    80001cf6:	fffff097          	auipc	ra,0xfffff
    80001cfa:	608080e7          	jalr	1544(ra) # 800012fe <mappages>
    80001cfe:	02054863          	bltz	a0,80001d2e <proc_pagetable+0x66>
  if (mappages(pagetable, TRAPFRAME, PGSIZE,
    80001d02:	4719                	li	a4,6
    80001d04:	05893683          	ld	a3,88(s2)
    80001d08:	6605                	lui	a2,0x1
    80001d0a:	020005b7          	lui	a1,0x2000
    80001d0e:	15fd                	add	a1,a1,-1 # 1ffffff <_entry-0x7e000001>
    80001d10:	05b6                	sll	a1,a1,0xd
    80001d12:	8526                	mv	a0,s1
    80001d14:	fffff097          	auipc	ra,0xfffff
    80001d18:	5ea080e7          	jalr	1514(ra) # 800012fe <mappages>
    80001d1c:	02054163          	bltz	a0,80001d3e <proc_pagetable+0x76>
}
    80001d20:	8526                	mv	a0,s1
    80001d22:	60e2                	ld	ra,24(sp)
    80001d24:	6442                	ld	s0,16(sp)
    80001d26:	64a2                	ld	s1,8(sp)
    80001d28:	6902                	ld	s2,0(sp)
    80001d2a:	6105                	add	sp,sp,32
    80001d2c:	8082                	ret
    uvmfree(pagetable, 0);
    80001d2e:	4581                	li	a1,0
    80001d30:	8526                	mv	a0,s1
    80001d32:	00000097          	auipc	ra,0x0
    80001d36:	a5c080e7          	jalr	-1444(ra) # 8000178e <uvmfree>
    return 0;
    80001d3a:	4481                	li	s1,0
    80001d3c:	b7d5                	j	80001d20 <proc_pagetable+0x58>
    uvmunmap(pagetable, TRAMPOLINE, 1, 0);
    80001d3e:	4681                	li	a3,0
    80001d40:	4605                	li	a2,1
    80001d42:	040005b7          	lui	a1,0x4000
    80001d46:	15fd                	add	a1,a1,-1 # 3ffffff <_entry-0x7c000001>
    80001d48:	05b2                	sll	a1,a1,0xc
    80001d4a:	8526                	mv	a0,s1
    80001d4c:	fffff097          	auipc	ra,0xfffff
    80001d50:	778080e7          	jalr	1912(ra) # 800014c4 <uvmunmap>
    uvmfree(pagetable, 0);
    80001d54:	4581                	li	a1,0
    80001d56:	8526                	mv	a0,s1
    80001d58:	00000097          	auipc	ra,0x0
    80001d5c:	a36080e7          	jalr	-1482(ra) # 8000178e <uvmfree>
    return 0;
    80001d60:	4481                	li	s1,0
    80001d62:	bf7d                	j	80001d20 <proc_pagetable+0x58>

0000000080001d64 <proc_freepagetable>:
{
    80001d64:	1101                	add	sp,sp,-32
    80001d66:	ec06                	sd	ra,24(sp)
    80001d68:	e822                	sd	s0,16(sp)
    80001d6a:	e426                	sd	s1,8(sp)
    80001d6c:	e04a                	sd	s2,0(sp)
    80001d6e:	1000                	add	s0,sp,32
    80001d70:	84aa                	mv	s1,a0
    80001d72:	892e                	mv	s2,a1
  uvmunmap(pagetable, TRAMPOLINE, 1, 0);
    80001d74:	4681                	li	a3,0
    80001d76:	4605                	li	a2,1
    80001d78:	040005b7          	lui	a1,0x4000
    80001d7c:	15fd                	add	a1,a1,-1 # 3ffffff <_entry-0x7c000001>
    80001d7e:	05b2                	sll	a1,a1,0xc
    80001d80:	fffff097          	auipc	ra,0xfffff
    80001d84:	744080e7          	jalr	1860(ra) # 800014c4 <uvmunmap>
  uvmunmap(pagetable, TRAPFRAME, 1, 0);
    80001d88:	4681                	li	a3,0
    80001d8a:	4605                	li	a2,1
    80001d8c:	020005b7          	lui	a1,0x2000
    80001d90:	15fd                	add	a1,a1,-1 # 1ffffff <_entry-0x7e000001>
    80001d92:	05b6                	sll	a1,a1,0xd
    80001d94:	8526                	mv	a0,s1
    80001d96:	fffff097          	auipc	ra,0xfffff
    80001d9a:	72e080e7          	jalr	1838(ra) # 800014c4 <uvmunmap>
  uvmfree(pagetable, sz);
    80001d9e:	85ca                	mv	a1,s2
    80001da0:	8526                	mv	a0,s1
    80001da2:	00000097          	auipc	ra,0x0
    80001da6:	9ec080e7          	jalr	-1556(ra) # 8000178e <uvmfree>
}
    80001daa:	60e2                	ld	ra,24(sp)
    80001dac:	6442                	ld	s0,16(sp)
    80001dae:	64a2                	ld	s1,8(sp)
    80001db0:	6902                	ld	s2,0(sp)
    80001db2:	6105                	add	sp,sp,32
    80001db4:	8082                	ret

0000000080001db6 <freeproc>:
{
    80001db6:	1101                	add	sp,sp,-32
    80001db8:	ec06                	sd	ra,24(sp)
    80001dba:	e822                	sd	s0,16(sp)
    80001dbc:	e426                	sd	s1,8(sp)
    80001dbe:	1000                	add	s0,sp,32
    80001dc0:	84aa                	mv	s1,a0
  if (p->trapframe)
    80001dc2:	6d28                	ld	a0,88(a0)
    80001dc4:	c509                	beqz	a0,80001dce <freeproc+0x18>
    kfree((void *)p->trapframe);
    80001dc6:	fffff097          	auipc	ra,0xfffff
    80001dca:	c1e080e7          	jalr	-994(ra) # 800009e4 <kfree>
  p->trapframe = 0;
    80001dce:	0404bc23          	sd	zero,88(s1)
  if (p->pagetable)
    80001dd2:	68a8                	ld	a0,80(s1)
    80001dd4:	c511                	beqz	a0,80001de0 <freeproc+0x2a>
    proc_freepagetable(p->pagetable, p->sz);
    80001dd6:	64ac                	ld	a1,72(s1)
    80001dd8:	00000097          	auipc	ra,0x0
    80001ddc:	f8c080e7          	jalr	-116(ra) # 80001d64 <proc_freepagetable>
  p->pagetable = 0;
    80001de0:	0404b823          	sd	zero,80(s1)
  p->sz = 0;
    80001de4:	0404b423          	sd	zero,72(s1)
  p->pid = 0;
    80001de8:	0204a823          	sw	zero,48(s1)
  p->parent = 0;
    80001dec:	0204bc23          	sd	zero,56(s1)
  p->name[0] = 0;
    80001df0:	14048c23          	sb	zero,344(s1)
  p->chan = 0;
    80001df4:	0204b023          	sd	zero,32(s1)
  p->killed = 0;
    80001df8:	0204a423          	sw	zero,40(s1)
  p->xstate = 0;
    80001dfc:	0204a623          	sw	zero,44(s1)
  p->state = UNUSED;
    80001e00:	0004ac23          	sw	zero,24(s1)
}
    80001e04:	60e2                	ld	ra,24(sp)
    80001e06:	6442                	ld	s0,16(sp)
    80001e08:	64a2                	ld	s1,8(sp)
    80001e0a:	6105                	add	sp,sp,32
    80001e0c:	8082                	ret

0000000080001e0e <allocproc>:
{
    80001e0e:	1101                	add	sp,sp,-32
    80001e10:	ec06                	sd	ra,24(sp)
    80001e12:	e822                	sd	s0,16(sp)
    80001e14:	e426                	sd	s1,8(sp)
    80001e16:	e04a                	sd	s2,0(sp)
    80001e18:	1000                	add	s0,sp,32
  for (p = proc; p < &proc[NPROC]; p++)
    80001e1a:	0002f497          	auipc	s1,0x2f
    80001e1e:	19e48493          	add	s1,s1,414 # 80030fb8 <proc>
    80001e22:	00035917          	auipc	s2,0x35
    80001e26:	59690913          	add	s2,s2,1430 # 800373b8 <tickslock>
    acquire(&p->lock);
    80001e2a:	8526                	mv	a0,s1
    80001e2c:	fffff097          	auipc	ra,0xfffff
    80001e30:	00c080e7          	jalr	12(ra) # 80000e38 <acquire>
    if (p->state == UNUSED)
    80001e34:	4c9c                	lw	a5,24(s1)
    80001e36:	cf81                	beqz	a5,80001e4e <allocproc+0x40>
      release(&p->lock);
    80001e38:	8526                	mv	a0,s1
    80001e3a:	fffff097          	auipc	ra,0xfffff
    80001e3e:	0b2080e7          	jalr	178(ra) # 80000eec <release>
  for (p = proc; p < &proc[NPROC]; p++)
    80001e42:	19048493          	add	s1,s1,400
    80001e46:	ff2492e3          	bne	s1,s2,80001e2a <allocproc+0x1c>
  return 0;
    80001e4a:	4481                	li	s1,0
    80001e4c:	a059                	j	80001ed2 <allocproc+0xc4>
  p->pid = allocpid();
    80001e4e:	00000097          	auipc	ra,0x0
    80001e52:	e34080e7          	jalr	-460(ra) # 80001c82 <allocpid>
    80001e56:	d888                	sw	a0,48(s1)
  p->state = USED;
    80001e58:	4785                	li	a5,1
    80001e5a:	cc9c                	sw	a5,24(s1)
  if ((p->trapframe = (struct trapframe *)kalloc()) == 0)
    80001e5c:	fffff097          	auipc	ra,0xfffff
    80001e60:	cfc080e7          	jalr	-772(ra) # 80000b58 <kalloc>
    80001e64:	892a                	mv	s2,a0
    80001e66:	eca8                	sd	a0,88(s1)
    80001e68:	cd25                	beqz	a0,80001ee0 <allocproc+0xd2>
  p->pagetable = proc_pagetable(p);
    80001e6a:	8526                	mv	a0,s1
    80001e6c:	00000097          	auipc	ra,0x0
    80001e70:	e5c080e7          	jalr	-420(ra) # 80001cc8 <proc_pagetable>
    80001e74:	892a                	mv	s2,a0
    80001e76:	e8a8                	sd	a0,80(s1)
  if (p->pagetable == 0)
    80001e78:	c141                	beqz	a0,80001ef8 <allocproc+0xea>
  memset(&p->context, 0, sizeof(p->context));
    80001e7a:	07000613          	li	a2,112
    80001e7e:	4581                	li	a1,0
    80001e80:	06048513          	add	a0,s1,96
    80001e84:	fffff097          	auipc	ra,0xfffff
    80001e88:	0b0080e7          	jalr	176(ra) # 80000f34 <memset>
  p->context.ra = (uint64)forkret;
    80001e8c:	00000797          	auipc	a5,0x0
    80001e90:	db078793          	add	a5,a5,-592 # 80001c3c <forkret>
    80001e94:	f0bc                	sd	a5,96(s1)
  p->context.sp = p->kstack + PGSIZE;
    80001e96:	60bc                	ld	a5,64(s1)
    80001e98:	6705                	lui	a4,0x1
    80001e9a:	97ba                	add	a5,a5,a4
    80001e9c:	f4bc                	sd	a5,104(s1)
  p->rtime = 0;
    80001e9e:	1604a423          	sw	zero,360(s1)
  p->etime = 0;
    80001ea2:	1604a823          	sw	zero,368(s1)
  p->ctime = ticks;
    80001ea6:	00007797          	auipc	a5,0x7
    80001eaa:	a5a7a783          	lw	a5,-1446(a5) # 80008900 <ticks>
    80001eae:	16f4a623          	sw	a5,364(s1)
  p->sched = 0 ;
    80001eb2:	1604aa23          	sw	zero,372(s1)
  p->time_sleep = 0 ;
    80001eb6:	1604ac23          	sw	zero,376(s1)
  p->time_run = 0;
    80001eba:	1604ae23          	sw	zero,380(s1)
  p->D = 0;
    80001ebe:	1804a023          	sw	zero,384(s1)
  p->S = 60;
    80001ec2:	03c00793          	li	a5,60
    80001ec6:	18f4a223          	sw	a5,388(s1)
  p->time_start=0;
    80001eca:	1804a423          	sw	zero,392(s1)
  p->time_wait=0;
    80001ece:	1804a623          	sw	zero,396(s1)
}
    80001ed2:	8526                	mv	a0,s1
    80001ed4:	60e2                	ld	ra,24(sp)
    80001ed6:	6442                	ld	s0,16(sp)
    80001ed8:	64a2                	ld	s1,8(sp)
    80001eda:	6902                	ld	s2,0(sp)
    80001edc:	6105                	add	sp,sp,32
    80001ede:	8082                	ret
    freeproc(p);
    80001ee0:	8526                	mv	a0,s1
    80001ee2:	00000097          	auipc	ra,0x0
    80001ee6:	ed4080e7          	jalr	-300(ra) # 80001db6 <freeproc>
    release(&p->lock);
    80001eea:	8526                	mv	a0,s1
    80001eec:	fffff097          	auipc	ra,0xfffff
    80001ef0:	000080e7          	jalr	ra # 80000eec <release>
    return 0;
    80001ef4:	84ca                	mv	s1,s2
    80001ef6:	bff1                	j	80001ed2 <allocproc+0xc4>
    freeproc(p);
    80001ef8:	8526                	mv	a0,s1
    80001efa:	00000097          	auipc	ra,0x0
    80001efe:	ebc080e7          	jalr	-324(ra) # 80001db6 <freeproc>
    release(&p->lock);
    80001f02:	8526                	mv	a0,s1
    80001f04:	fffff097          	auipc	ra,0xfffff
    80001f08:	fe8080e7          	jalr	-24(ra) # 80000eec <release>
    return 0;
    80001f0c:	84ca                	mv	s1,s2
    80001f0e:	b7d1                	j	80001ed2 <allocproc+0xc4>

0000000080001f10 <userinit>:
{
    80001f10:	1101                	add	sp,sp,-32
    80001f12:	ec06                	sd	ra,24(sp)
    80001f14:	e822                	sd	s0,16(sp)
    80001f16:	e426                	sd	s1,8(sp)
    80001f18:	1000                	add	s0,sp,32
  p = allocproc();
    80001f1a:	00000097          	auipc	ra,0x0
    80001f1e:	ef4080e7          	jalr	-268(ra) # 80001e0e <allocproc>
    80001f22:	84aa                	mv	s1,a0
  initproc = p;
    80001f24:	00007797          	auipc	a5,0x7
    80001f28:	9ca7ba23          	sd	a0,-1580(a5) # 800088f8 <initproc>
  uvmfirst(p->pagetable, initcode, sizeof(initcode));
    80001f2c:	03400613          	li	a2,52
    80001f30:	00007597          	auipc	a1,0x7
    80001f34:	96058593          	add	a1,a1,-1696 # 80008890 <initcode>
    80001f38:	6928                	ld	a0,80(a0)
    80001f3a:	fffff097          	auipc	ra,0xfffff
    80001f3e:	67c080e7          	jalr	1660(ra) # 800015b6 <uvmfirst>
  p->sz = PGSIZE;
    80001f42:	6785                	lui	a5,0x1
    80001f44:	e4bc                	sd	a5,72(s1)
  p->trapframe->epc = 0;     // user program counter
    80001f46:	6cb8                	ld	a4,88(s1)
    80001f48:	00073c23          	sd	zero,24(a4) # 1018 <_entry-0x7fffefe8>
  p->trapframe->sp = PGSIZE; // user stack pointer
    80001f4c:	6cb8                	ld	a4,88(s1)
    80001f4e:	fb1c                	sd	a5,48(a4)
  safestrcpy(p->name, "initcode", sizeof(p->name));
    80001f50:	4641                	li	a2,16
    80001f52:	00006597          	auipc	a1,0x6
    80001f56:	2ce58593          	add	a1,a1,718 # 80008220 <digits+0x1e0>
    80001f5a:	15848513          	add	a0,s1,344
    80001f5e:	fffff097          	auipc	ra,0xfffff
    80001f62:	11e080e7          	jalr	286(ra) # 8000107c <safestrcpy>
  p->cwd = namei("/");
    80001f66:	00006517          	auipc	a0,0x6
    80001f6a:	2ca50513          	add	a0,a0,714 # 80008230 <digits+0x1f0>
    80001f6e:	00002097          	auipc	ra,0x2
    80001f72:	558080e7          	jalr	1368(ra) # 800044c6 <namei>
    80001f76:	14a4b823          	sd	a0,336(s1)
  p->state = RUNNABLE;
    80001f7a:	478d                	li	a5,3
    80001f7c:	cc9c                	sw	a5,24(s1)
  release(&p->lock);
    80001f7e:	8526                	mv	a0,s1
    80001f80:	fffff097          	auipc	ra,0xfffff
    80001f84:	f6c080e7          	jalr	-148(ra) # 80000eec <release>
}
    80001f88:	60e2                	ld	ra,24(sp)
    80001f8a:	6442                	ld	s0,16(sp)
    80001f8c:	64a2                	ld	s1,8(sp)
    80001f8e:	6105                	add	sp,sp,32
    80001f90:	8082                	ret

0000000080001f92 <growproc>:
{
    80001f92:	1101                	add	sp,sp,-32
    80001f94:	ec06                	sd	ra,24(sp)
    80001f96:	e822                	sd	s0,16(sp)
    80001f98:	e426                	sd	s1,8(sp)
    80001f9a:	e04a                	sd	s2,0(sp)
    80001f9c:	1000                	add	s0,sp,32
    80001f9e:	892a                	mv	s2,a0
  struct proc *p = myproc();
    80001fa0:	00000097          	auipc	ra,0x0
    80001fa4:	c64080e7          	jalr	-924(ra) # 80001c04 <myproc>
    80001fa8:	84aa                	mv	s1,a0
  sz = p->sz;
    80001faa:	652c                	ld	a1,72(a0)
  if (n > 0)
    80001fac:	01204c63          	bgtz	s2,80001fc4 <growproc+0x32>
  else if (n < 0)
    80001fb0:	02094663          	bltz	s2,80001fdc <growproc+0x4a>
  p->sz = sz;
    80001fb4:	e4ac                	sd	a1,72(s1)
  return 0;
    80001fb6:	4501                	li	a0,0
}
    80001fb8:	60e2                	ld	ra,24(sp)
    80001fba:	6442                	ld	s0,16(sp)
    80001fbc:	64a2                	ld	s1,8(sp)
    80001fbe:	6902                	ld	s2,0(sp)
    80001fc0:	6105                	add	sp,sp,32
    80001fc2:	8082                	ret
    if ((sz = uvmalloc(p->pagetable, sz, sz + n, PTE_W)) == 0)
    80001fc4:	4691                	li	a3,4
    80001fc6:	00b90633          	add	a2,s2,a1
    80001fca:	6928                	ld	a0,80(a0)
    80001fcc:	fffff097          	auipc	ra,0xfffff
    80001fd0:	6a4080e7          	jalr	1700(ra) # 80001670 <uvmalloc>
    80001fd4:	85aa                	mv	a1,a0
    80001fd6:	fd79                	bnez	a0,80001fb4 <growproc+0x22>
      return -1;
    80001fd8:	557d                	li	a0,-1
    80001fda:	bff9                	j	80001fb8 <growproc+0x26>
    sz = uvmdealloc(p->pagetable, sz, sz + n);
    80001fdc:	00b90633          	add	a2,s2,a1
    80001fe0:	6928                	ld	a0,80(a0)
    80001fe2:	fffff097          	auipc	ra,0xfffff
    80001fe6:	646080e7          	jalr	1606(ra) # 80001628 <uvmdealloc>
    80001fea:	85aa                	mv	a1,a0
    80001fec:	b7e1                	j	80001fb4 <growproc+0x22>

0000000080001fee <fork>:
{
    80001fee:	7139                	add	sp,sp,-64
    80001ff0:	fc06                	sd	ra,56(sp)
    80001ff2:	f822                	sd	s0,48(sp)
    80001ff4:	f426                	sd	s1,40(sp)
    80001ff6:	f04a                	sd	s2,32(sp)
    80001ff8:	ec4e                	sd	s3,24(sp)
    80001ffa:	e852                	sd	s4,16(sp)
    80001ffc:	e456                	sd	s5,8(sp)
    80001ffe:	0080                	add	s0,sp,64
  struct proc *p = myproc();
    80002000:	00000097          	auipc	ra,0x0
    80002004:	c04080e7          	jalr	-1020(ra) # 80001c04 <myproc>
    80002008:	8aaa                	mv	s5,a0
  if ((np = allocproc()) == 0)
    8000200a:	00000097          	auipc	ra,0x0
    8000200e:	e04080e7          	jalr	-508(ra) # 80001e0e <allocproc>
    80002012:	10050c63          	beqz	a0,8000212a <fork+0x13c>
    80002016:	8a2a                	mv	s4,a0
  if (uvmcopy(p->pagetable, np->pagetable, p->sz) < 0)
    80002018:	048ab603          	ld	a2,72(s5)
    8000201c:	692c                	ld	a1,80(a0)
    8000201e:	050ab503          	ld	a0,80(s5)
    80002022:	fffff097          	auipc	ra,0xfffff
    80002026:	7a6080e7          	jalr	1958(ra) # 800017c8 <uvmcopy>
    8000202a:	04054863          	bltz	a0,8000207a <fork+0x8c>
  np->sz = p->sz;
    8000202e:	048ab783          	ld	a5,72(s5)
    80002032:	04fa3423          	sd	a5,72(s4)
  *(np->trapframe) = *(p->trapframe);
    80002036:	058ab683          	ld	a3,88(s5)
    8000203a:	87b6                	mv	a5,a3
    8000203c:	058a3703          	ld	a4,88(s4)
    80002040:	12068693          	add	a3,a3,288
    80002044:	0007b803          	ld	a6,0(a5) # 1000 <_entry-0x7ffff000>
    80002048:	6788                	ld	a0,8(a5)
    8000204a:	6b8c                	ld	a1,16(a5)
    8000204c:	6f90                	ld	a2,24(a5)
    8000204e:	01073023          	sd	a6,0(a4)
    80002052:	e708                	sd	a0,8(a4)
    80002054:	eb0c                	sd	a1,16(a4)
    80002056:	ef10                	sd	a2,24(a4)
    80002058:	02078793          	add	a5,a5,32
    8000205c:	02070713          	add	a4,a4,32
    80002060:	fed792e3          	bne	a5,a3,80002044 <fork+0x56>
  np->trapframe->a0 = 0;
    80002064:	058a3783          	ld	a5,88(s4)
    80002068:	0607b823          	sd	zero,112(a5)
  for (i = 0; i < NOFILE; i++)
    8000206c:	0d0a8493          	add	s1,s5,208
    80002070:	0d0a0913          	add	s2,s4,208
    80002074:	150a8993          	add	s3,s5,336
    80002078:	a00d                	j	8000209a <fork+0xac>
    freeproc(np);
    8000207a:	8552                	mv	a0,s4
    8000207c:	00000097          	auipc	ra,0x0
    80002080:	d3a080e7          	jalr	-710(ra) # 80001db6 <freeproc>
    release(&np->lock);
    80002084:	8552                	mv	a0,s4
    80002086:	fffff097          	auipc	ra,0xfffff
    8000208a:	e66080e7          	jalr	-410(ra) # 80000eec <release>
    return -1;
    8000208e:	597d                	li	s2,-1
    80002090:	a059                	j	80002116 <fork+0x128>
  for (i = 0; i < NOFILE; i++)
    80002092:	04a1                	add	s1,s1,8
    80002094:	0921                	add	s2,s2,8
    80002096:	01348b63          	beq	s1,s3,800020ac <fork+0xbe>
    if (p->ofile[i])
    8000209a:	6088                	ld	a0,0(s1)
    8000209c:	d97d                	beqz	a0,80002092 <fork+0xa4>
      np->ofile[i] = filedup(p->ofile[i]);
    8000209e:	00003097          	auipc	ra,0x3
    800020a2:	a9a080e7          	jalr	-1382(ra) # 80004b38 <filedup>
    800020a6:	00a93023          	sd	a0,0(s2)
    800020aa:	b7e5                	j	80002092 <fork+0xa4>
  np->cwd = idup(p->cwd);
    800020ac:	150ab503          	ld	a0,336(s5)
    800020b0:	00002097          	auipc	ra,0x2
    800020b4:	c32080e7          	jalr	-974(ra) # 80003ce2 <idup>
    800020b8:	14aa3823          	sd	a0,336(s4)
  safestrcpy(np->name, p->name, sizeof(p->name));
    800020bc:	4641                	li	a2,16
    800020be:	158a8593          	add	a1,s5,344
    800020c2:	158a0513          	add	a0,s4,344
    800020c6:	fffff097          	auipc	ra,0xfffff
    800020ca:	fb6080e7          	jalr	-74(ra) # 8000107c <safestrcpy>
  pid = np->pid;
    800020ce:	030a2903          	lw	s2,48(s4)
  release(&np->lock);
    800020d2:	8552                	mv	a0,s4
    800020d4:	fffff097          	auipc	ra,0xfffff
    800020d8:	e18080e7          	jalr	-488(ra) # 80000eec <release>
  acquire(&wait_lock);
    800020dc:	0002f497          	auipc	s1,0x2f
    800020e0:	ac448493          	add	s1,s1,-1340 # 80030ba0 <wait_lock>
    800020e4:	8526                	mv	a0,s1
    800020e6:	fffff097          	auipc	ra,0xfffff
    800020ea:	d52080e7          	jalr	-686(ra) # 80000e38 <acquire>
  np->parent = p;
    800020ee:	035a3c23          	sd	s5,56(s4)
  release(&wait_lock);
    800020f2:	8526                	mv	a0,s1
    800020f4:	fffff097          	auipc	ra,0xfffff
    800020f8:	df8080e7          	jalr	-520(ra) # 80000eec <release>
  acquire(&np->lock);
    800020fc:	8552                	mv	a0,s4
    800020fe:	fffff097          	auipc	ra,0xfffff
    80002102:	d3a080e7          	jalr	-710(ra) # 80000e38 <acquire>
  np->state = RUNNABLE;
    80002106:	478d                	li	a5,3
    80002108:	00fa2c23          	sw	a5,24(s4)
  release(&np->lock);
    8000210c:	8552                	mv	a0,s4
    8000210e:	fffff097          	auipc	ra,0xfffff
    80002112:	dde080e7          	jalr	-546(ra) # 80000eec <release>
}
    80002116:	854a                	mv	a0,s2
    80002118:	70e2                	ld	ra,56(sp)
    8000211a:	7442                	ld	s0,48(sp)
    8000211c:	74a2                	ld	s1,40(sp)
    8000211e:	7902                	ld	s2,32(sp)
    80002120:	69e2                	ld	s3,24(sp)
    80002122:	6a42                	ld	s4,16(sp)
    80002124:	6aa2                	ld	s5,8(sp)
    80002126:	6121                	add	sp,sp,64
    80002128:	8082                	ret
    return -1;
    8000212a:	597d                	li	s2,-1
    8000212c:	b7ed                	j	80002116 <fork+0x128>

000000008000212e <scheduler>:
{
    8000212e:	711d                	add	sp,sp,-96
    80002130:	ec86                	sd	ra,88(sp)
    80002132:	e8a2                	sd	s0,80(sp)
    80002134:	e4a6                	sd	s1,72(sp)
    80002136:	e0ca                	sd	s2,64(sp)
    80002138:	fc4e                	sd	s3,56(sp)
    8000213a:	f852                	sd	s4,48(sp)
    8000213c:	f456                	sd	s5,40(sp)
    8000213e:	f05a                	sd	s6,32(sp)
    80002140:	ec5e                	sd	s7,24(sp)
    80002142:	e862                	sd	s8,16(sp)
    80002144:	e466                	sd	s9,8(sp)
    80002146:	1080                	add	s0,sp,96
    80002148:	8792                	mv	a5,tp
  int id = r_tp();
    8000214a:	2781                	sext.w	a5,a5
  c->proc = 0;
    8000214c:	00779693          	sll	a3,a5,0x7
    80002150:	0002f717          	auipc	a4,0x2f
    80002154:	a3870713          	add	a4,a4,-1480 # 80030b88 <pid_lock>
    80002158:	9736                	add	a4,a4,a3
    8000215a:	02073823          	sd	zero,48(a4)
          swtch(&c->context, &highpriority->context);
    8000215e:	0002f717          	auipc	a4,0x2f
    80002162:	a6270713          	add	a4,a4,-1438 # 80030bc0 <cpus+0x8>
    80002166:	00e68cb3          	add	s9,a3,a4
    struct proc* highpriority = 0;
    8000216a:	4b81                	li	s7,0
    p->D = (p->S + niceness) > 100 ? 100 : (p->S + niceness);
    8000216c:	06400a93          	li	s5,100
    80002170:	06400b13          	li	s6,100
  for(p = proc; p < &proc[NPROC]; p++) {
    80002174:	00035997          	auipc	s3,0x35
    80002178:	24498993          	add	s3,s3,580 # 800373b8 <tickslock>
          c->proc = highpriority;
    8000217c:	0002fc17          	auipc	s8,0x2f
    80002180:	a0cc0c13          	add	s8,s8,-1524 # 80030b88 <pid_lock>
    80002184:	9c36                	add	s8,s8,a3
    80002186:	aa2d                	j	800022c0 <scheduler+0x192>
      release(&p->lock);
    80002188:	8526                	mv	a0,s1
    8000218a:	fffff097          	auipc	ra,0xfffff
    8000218e:	d62080e7          	jalr	-670(ra) # 80000eec <release>
      continue;
    80002192:	a809                	j	800021a4 <scheduler+0x76>
    80002194:	8926                	mv	s2,s1
    80002196:	a011                	j	8000219a <scheduler+0x6c>
    80002198:	8926                	mv	s2,s1
release(&p->lock);
    8000219a:	8526                	mv	a0,s1
    8000219c:	fffff097          	auipc	ra,0xfffff
    800021a0:	d50080e7          	jalr	-688(ra) # 80000eec <release>
  for(p = proc; p < &proc[NPROC]; p++) {
    800021a4:	19048493          	add	s1,s1,400
    800021a8:	09348c63          	beq	s1,s3,80002240 <scheduler+0x112>
        acquire(&p->lock);
    800021ac:	8526                	mv	a0,s1
    800021ae:	fffff097          	auipc	ra,0xfffff
    800021b2:	c8a080e7          	jalr	-886(ra) # 80000e38 <acquire>
    niceness = (3 * p->time_run - p->time_sleep - p->time_wait) / ( p->time_run+ p->time_wait +p->time_sleep ) + 50;
    800021b6:	17c4a703          	lw	a4,380(s1)
    800021ba:	1784a683          	lw	a3,376(s1)
    800021be:	18c4a603          	lw	a2,396(s1)
    if(p->state!=RUNNABLE)
    800021c2:	4c9c                	lw	a5,24(s1)
    800021c4:	fd4792e3          	bne	a5,s4,80002188 <scheduler+0x5a>
    niceness = (3 * p->time_run - p->time_sleep - p->time_wait) / ( p->time_run+ p->time_wait +p->time_sleep ) + 50;
    800021c8:	0017179b          	sllw	a5,a4,0x1
    800021cc:	9fb9                	addw	a5,a5,a4
    800021ce:	9f95                	subw	a5,a5,a3
    800021d0:	9f91                	subw	a5,a5,a2
    800021d2:	9f31                	addw	a4,a4,a2
    800021d4:	9f35                	addw	a4,a4,a3
    800021d6:	02e7c7bb          	divw	a5,a5,a4
    800021da:	0327879b          	addw	a5,a5,50
    niceness = (niceness < 0) ? 0 : niceness;
    800021de:	0007871b          	sext.w	a4,a5
    800021e2:	fff74713          	not	a4,a4
    800021e6:	977d                	sra	a4,a4,0x3f
    800021e8:	8ff9                	and	a5,a5,a4
    p->D = (p->S + niceness) > 100 ? 100 : (p->S + niceness);
    800021ea:	1844a703          	lw	a4,388(s1)
    800021ee:	9fb9                	addw	a5,a5,a4
    800021f0:	0007871b          	sext.w	a4,a5
    800021f4:	00ead363          	bge	s5,a4,800021fa <scheduler+0xcc>
    800021f8:	87da                	mv	a5,s6
    800021fa:	0007871b          	sext.w	a4,a5
    800021fe:	18f4a023          	sw	a5,384(s1)
    p->time_start++;
    80002202:	1884a783          	lw	a5,392(s1)
    80002206:	2789                	addw	a5,a5,2
    80002208:	18f4a423          	sw	a5,392(s1)
    if (highpriority == 0) {
    8000220c:	f80904e3          	beqz	s2,80002194 <scheduler+0x66>
    else if(p->D < highpriority->D){
    80002210:	18092783          	lw	a5,384(s2)
    80002214:	f8f742e3          	blt	a4,a5,80002198 <scheduler+0x6a>
      else if (p->D == highpriority->D) {
    80002218:	f8f711e3          	bne	a4,a5,8000219a <scheduler+0x6c>
        if (p->sched < highpriority->sched) {
    8000221c:	1744a703          	lw	a4,372(s1)
    80002220:	17492783          	lw	a5,372(s2)
    80002224:	00f74c63          	blt	a4,a5,8000223c <scheduler+0x10e>
        } else if (p->sched == highpriority->sched) {
    80002228:	f6f719e3          	bne	a4,a5,8000219a <scheduler+0x6c>
            if (p->ctime > highpriority->ctime) {
    8000222c:	16c4a703          	lw	a4,364(s1)
    80002230:	16c92783          	lw	a5,364(s2)
    80002234:	f6e7f3e3          	bgeu	a5,a4,8000219a <scheduler+0x6c>
    80002238:	8926                	mv	s2,s1
    8000223a:	b785                	j	8000219a <scheduler+0x6c>
    8000223c:	8926                	mv	s2,s1
    8000223e:	bfb1                	j	8000219a <scheduler+0x6c>
      if(highpriority!=0){
    80002240:	00091e63          	bnez	s2,8000225c <scheduler+0x12e>
  asm volatile("csrr %0, sstatus" : "=r" (x) );
    80002244:	100027f3          	csrr	a5,sstatus
  w_sstatus(r_sstatus() | SSTATUS_SIE);
    80002248:	0027e793          	or	a5,a5,2
  asm volatile("csrw sstatus, %0" : : "r" (x));
    8000224c:	10079073          	csrw	sstatus,a5
    struct proc* highpriority = 0;
    80002250:	895e                	mv	s2,s7
  for(p = proc; p < &proc[NPROC]; p++) {
    80002252:	0002f497          	auipc	s1,0x2f
    80002256:	d6648493          	add	s1,s1,-666 # 80030fb8 <proc>
    8000225a:	bf89                	j	800021ac <scheduler+0x7e>
        acquire(&highpriority->lock);
    8000225c:	84ca                	mv	s1,s2
    8000225e:	854a                	mv	a0,s2
    80002260:	fffff097          	auipc	ra,0xfffff
    80002264:	bd8080e7          	jalr	-1064(ra) # 80000e38 <acquire>
        if(highpriority->state == RUNNABLE){
    80002268:	01892703          	lw	a4,24(s2)
    8000226c:	478d                	li	a5,3
    8000226e:	04f71463          	bne	a4,a5,800022b6 <scheduler+0x188>
          highpriority->state = RUNNING;
    80002272:	4791                	li	a5,4
    80002274:	00f92c23          	sw	a5,24(s2)
          highpriority->time_run=0;
    80002278:	16092e23          	sw	zero,380(s2)
          highpriority->time_sleep=0;
    8000227c:	16092c23          	sw	zero,376(s2)
          c->proc = highpriority;
    80002280:	032c3823          	sd	s2,48(s8)
          if (p->time_start == 0)
    80002284:	00035797          	auipc	a5,0x35
    80002288:	2bc7a783          	lw	a5,700(a5) # 80037540 <bcache+0x170>
    8000228c:	e799                	bnez	a5,8000229a <scheduler+0x16c>
          highpriority->time_start = ticks;
    8000228e:	00006797          	auipc	a5,0x6
    80002292:	6727a783          	lw	a5,1650(a5) # 80008900 <ticks>
    80002296:	18f92423          	sw	a5,392(s2)
          highpriority->sched++;
    8000229a:	17492783          	lw	a5,372(s2)
    8000229e:	2785                	addw	a5,a5,1
    800022a0:	16f92a23          	sw	a5,372(s2)
          swtch(&c->context, &highpriority->context);
    800022a4:	06090593          	add	a1,s2,96
    800022a8:	8566                	mv	a0,s9
    800022aa:	00001097          	auipc	ra,0x1
    800022ae:	87a080e7          	jalr	-1926(ra) # 80002b24 <swtch>
          c->proc = 0;
    800022b2:	020c3823          	sd	zero,48(s8)
        release(&highpriority->lock);
    800022b6:	8526                	mv	a0,s1
    800022b8:	fffff097          	auipc	ra,0xfffff
    800022bc:	c34080e7          	jalr	-972(ra) # 80000eec <release>
    if(p->state!=RUNNABLE)
    800022c0:	4a0d                	li	s4,3
    800022c2:	b749                	j	80002244 <scheduler+0x116>

00000000800022c4 <sched>:
{
    800022c4:	7179                	add	sp,sp,-48
    800022c6:	f406                	sd	ra,40(sp)
    800022c8:	f022                	sd	s0,32(sp)
    800022ca:	ec26                	sd	s1,24(sp)
    800022cc:	e84a                	sd	s2,16(sp)
    800022ce:	e44e                	sd	s3,8(sp)
    800022d0:	1800                	add	s0,sp,48
  struct proc *p = myproc();
    800022d2:	00000097          	auipc	ra,0x0
    800022d6:	932080e7          	jalr	-1742(ra) # 80001c04 <myproc>
    800022da:	84aa                	mv	s1,a0
  if (!holding(&p->lock))
    800022dc:	fffff097          	auipc	ra,0xfffff
    800022e0:	ae2080e7          	jalr	-1310(ra) # 80000dbe <holding>
    800022e4:	c93d                	beqz	a0,8000235a <sched+0x96>
  asm volatile("mv %0, tp" : "=r" (x) );
    800022e6:	8792                	mv	a5,tp
  if (mycpu()->noff != 1)
    800022e8:	2781                	sext.w	a5,a5
    800022ea:	079e                	sll	a5,a5,0x7
    800022ec:	0002f717          	auipc	a4,0x2f
    800022f0:	89c70713          	add	a4,a4,-1892 # 80030b88 <pid_lock>
    800022f4:	97ba                	add	a5,a5,a4
    800022f6:	0a87a703          	lw	a4,168(a5)
    800022fa:	4785                	li	a5,1
    800022fc:	06f71763          	bne	a4,a5,8000236a <sched+0xa6>
  if (p->state == RUNNING)
    80002300:	4c98                	lw	a4,24(s1)
    80002302:	4791                	li	a5,4
    80002304:	06f70b63          	beq	a4,a5,8000237a <sched+0xb6>
  asm volatile("csrr %0, sstatus" : "=r" (x) );
    80002308:	100027f3          	csrr	a5,sstatus
  return (x & SSTATUS_SIE) != 0;
    8000230c:	8b89                	and	a5,a5,2
  if (intr_get())
    8000230e:	efb5                	bnez	a5,8000238a <sched+0xc6>
  asm volatile("mv %0, tp" : "=r" (x) );
    80002310:	8792                	mv	a5,tp
  intena = mycpu()->intena;
    80002312:	0002f917          	auipc	s2,0x2f
    80002316:	87690913          	add	s2,s2,-1930 # 80030b88 <pid_lock>
    8000231a:	2781                	sext.w	a5,a5
    8000231c:	079e                	sll	a5,a5,0x7
    8000231e:	97ca                	add	a5,a5,s2
    80002320:	0ac7a983          	lw	s3,172(a5)
    80002324:	8792                	mv	a5,tp
  swtch(&p->context, &mycpu()->context);
    80002326:	2781                	sext.w	a5,a5
    80002328:	079e                	sll	a5,a5,0x7
    8000232a:	0002f597          	auipc	a1,0x2f
    8000232e:	89658593          	add	a1,a1,-1898 # 80030bc0 <cpus+0x8>
    80002332:	95be                	add	a1,a1,a5
    80002334:	06048513          	add	a0,s1,96
    80002338:	00000097          	auipc	ra,0x0
    8000233c:	7ec080e7          	jalr	2028(ra) # 80002b24 <swtch>
    80002340:	8792                	mv	a5,tp
  mycpu()->intena = intena;
    80002342:	2781                	sext.w	a5,a5
    80002344:	079e                	sll	a5,a5,0x7
    80002346:	993e                	add	s2,s2,a5
    80002348:	0b392623          	sw	s3,172(s2)
}
    8000234c:	70a2                	ld	ra,40(sp)
    8000234e:	7402                	ld	s0,32(sp)
    80002350:	64e2                	ld	s1,24(sp)
    80002352:	6942                	ld	s2,16(sp)
    80002354:	69a2                	ld	s3,8(sp)
    80002356:	6145                	add	sp,sp,48
    80002358:	8082                	ret
    panic("sched p->lock");
    8000235a:	00006517          	auipc	a0,0x6
    8000235e:	ede50513          	add	a0,a0,-290 # 80008238 <digits+0x1f8>
    80002362:	ffffe097          	auipc	ra,0xffffe
    80002366:	1da080e7          	jalr	474(ra) # 8000053c <panic>
    panic("sched locks");
    8000236a:	00006517          	auipc	a0,0x6
    8000236e:	ede50513          	add	a0,a0,-290 # 80008248 <digits+0x208>
    80002372:	ffffe097          	auipc	ra,0xffffe
    80002376:	1ca080e7          	jalr	458(ra) # 8000053c <panic>
    panic("sched running");
    8000237a:	00006517          	auipc	a0,0x6
    8000237e:	ede50513          	add	a0,a0,-290 # 80008258 <digits+0x218>
    80002382:	ffffe097          	auipc	ra,0xffffe
    80002386:	1ba080e7          	jalr	442(ra) # 8000053c <panic>
    panic("sched interruptible");
    8000238a:	00006517          	auipc	a0,0x6
    8000238e:	ede50513          	add	a0,a0,-290 # 80008268 <digits+0x228>
    80002392:	ffffe097          	auipc	ra,0xffffe
    80002396:	1aa080e7          	jalr	426(ra) # 8000053c <panic>

000000008000239a <yield>:
{
    8000239a:	1101                	add	sp,sp,-32
    8000239c:	ec06                	sd	ra,24(sp)
    8000239e:	e822                	sd	s0,16(sp)
    800023a0:	e426                	sd	s1,8(sp)
    800023a2:	1000                	add	s0,sp,32
  struct proc *p = myproc();
    800023a4:	00000097          	auipc	ra,0x0
    800023a8:	860080e7          	jalr	-1952(ra) # 80001c04 <myproc>
    800023ac:	84aa                	mv	s1,a0
  acquire(&p->lock);
    800023ae:	fffff097          	auipc	ra,0xfffff
    800023b2:	a8a080e7          	jalr	-1398(ra) # 80000e38 <acquire>
  p->state = RUNNABLE;
    800023b6:	478d                	li	a5,3
    800023b8:	cc9c                	sw	a5,24(s1)
  sched();
    800023ba:	00000097          	auipc	ra,0x0
    800023be:	f0a080e7          	jalr	-246(ra) # 800022c4 <sched>
  release(&p->lock);
    800023c2:	8526                	mv	a0,s1
    800023c4:	fffff097          	auipc	ra,0xfffff
    800023c8:	b28080e7          	jalr	-1240(ra) # 80000eec <release>
}
    800023cc:	60e2                	ld	ra,24(sp)
    800023ce:	6442                	ld	s0,16(sp)
    800023d0:	64a2                	ld	s1,8(sp)
    800023d2:	6105                	add	sp,sp,32
    800023d4:	8082                	ret

00000000800023d6 <sleep>:

// Atomically release lock and sleep on chan.
// Reacquires lock when awakened.
void sleep(void *chan, struct spinlock *lk)
{
    800023d6:	7179                	add	sp,sp,-48
    800023d8:	f406                	sd	ra,40(sp)
    800023da:	f022                	sd	s0,32(sp)
    800023dc:	ec26                	sd	s1,24(sp)
    800023de:	e84a                	sd	s2,16(sp)
    800023e0:	e44e                	sd	s3,8(sp)
    800023e2:	1800                	add	s0,sp,48
    800023e4:	89aa                	mv	s3,a0
    800023e6:	892e                	mv	s2,a1
  struct proc *p = myproc();
    800023e8:	00000097          	auipc	ra,0x0
    800023ec:	81c080e7          	jalr	-2020(ra) # 80001c04 <myproc>
    800023f0:	84aa                	mv	s1,a0
  // Once we hold p->lock, we can be
  // guaranteed that we won't miss any wakeup
  // (wakeup locks p->lock),
  // so it's okay to release lk.

  acquire(&p->lock); // DOC: sleeplock1
    800023f2:	fffff097          	auipc	ra,0xfffff
    800023f6:	a46080e7          	jalr	-1466(ra) # 80000e38 <acquire>
  release(lk);
    800023fa:	854a                	mv	a0,s2
    800023fc:	fffff097          	auipc	ra,0xfffff
    80002400:	af0080e7          	jalr	-1296(ra) # 80000eec <release>

  // Go to sleep.
  p->chan = chan;
    80002404:	0334b023          	sd	s3,32(s1)
  p->state = SLEEPING;
    80002408:	4789                	li	a5,2
    8000240a:	cc9c                	sw	a5,24(s1)

  sched();
    8000240c:	00000097          	auipc	ra,0x0
    80002410:	eb8080e7          	jalr	-328(ra) # 800022c4 <sched>

  // Tidy up.
  p->chan = 0;
    80002414:	0204b023          	sd	zero,32(s1)

  // Reacquire original lock.
  release(&p->lock);
    80002418:	8526                	mv	a0,s1
    8000241a:	fffff097          	auipc	ra,0xfffff
    8000241e:	ad2080e7          	jalr	-1326(ra) # 80000eec <release>
  acquire(lk);
    80002422:	854a                	mv	a0,s2
    80002424:	fffff097          	auipc	ra,0xfffff
    80002428:	a14080e7          	jalr	-1516(ra) # 80000e38 <acquire>
}
    8000242c:	70a2                	ld	ra,40(sp)
    8000242e:	7402                	ld	s0,32(sp)
    80002430:	64e2                	ld	s1,24(sp)
    80002432:	6942                	ld	s2,16(sp)
    80002434:	69a2                	ld	s3,8(sp)
    80002436:	6145                	add	sp,sp,48
    80002438:	8082                	ret

000000008000243a <wakeup>:

// Wake up all processes sleeping on chan.
// Must be called without any p->lock.
void wakeup(void *chan)
{
    8000243a:	7139                	add	sp,sp,-64
    8000243c:	fc06                	sd	ra,56(sp)
    8000243e:	f822                	sd	s0,48(sp)
    80002440:	f426                	sd	s1,40(sp)
    80002442:	f04a                	sd	s2,32(sp)
    80002444:	ec4e                	sd	s3,24(sp)
    80002446:	e852                	sd	s4,16(sp)
    80002448:	e456                	sd	s5,8(sp)
    8000244a:	0080                	add	s0,sp,64
    8000244c:	8a2a                	mv	s4,a0
  struct proc *p;

  for (p = proc; p < &proc[NPROC]; p++)
    8000244e:	0002f497          	auipc	s1,0x2f
    80002452:	b6a48493          	add	s1,s1,-1174 # 80030fb8 <proc>
  {
    if (p != myproc())
    {
      acquire(&p->lock);
      if (p->state == SLEEPING && p->chan == chan)
    80002456:	4989                	li	s3,2
      {
        p->state = RUNNABLE;
    80002458:	4a8d                	li	s5,3
  for (p = proc; p < &proc[NPROC]; p++)
    8000245a:	00035917          	auipc	s2,0x35
    8000245e:	f5e90913          	add	s2,s2,-162 # 800373b8 <tickslock>
    80002462:	a811                	j	80002476 <wakeup+0x3c>
      }
      release(&p->lock);
    80002464:	8526                	mv	a0,s1
    80002466:	fffff097          	auipc	ra,0xfffff
    8000246a:	a86080e7          	jalr	-1402(ra) # 80000eec <release>
  for (p = proc; p < &proc[NPROC]; p++)
    8000246e:	19048493          	add	s1,s1,400
    80002472:	03248663          	beq	s1,s2,8000249e <wakeup+0x64>
    if (p != myproc())
    80002476:	fffff097          	auipc	ra,0xfffff
    8000247a:	78e080e7          	jalr	1934(ra) # 80001c04 <myproc>
    8000247e:	fea488e3          	beq	s1,a0,8000246e <wakeup+0x34>
      acquire(&p->lock);
    80002482:	8526                	mv	a0,s1
    80002484:	fffff097          	auipc	ra,0xfffff
    80002488:	9b4080e7          	jalr	-1612(ra) # 80000e38 <acquire>
      if (p->state == SLEEPING && p->chan == chan)
    8000248c:	4c9c                	lw	a5,24(s1)
    8000248e:	fd379be3          	bne	a5,s3,80002464 <wakeup+0x2a>
    80002492:	709c                	ld	a5,32(s1)
    80002494:	fd4798e3          	bne	a5,s4,80002464 <wakeup+0x2a>
        p->state = RUNNABLE;
    80002498:	0154ac23          	sw	s5,24(s1)
    8000249c:	b7e1                	j	80002464 <wakeup+0x2a>
    }
  }
}
    8000249e:	70e2                	ld	ra,56(sp)
    800024a0:	7442                	ld	s0,48(sp)
    800024a2:	74a2                	ld	s1,40(sp)
    800024a4:	7902                	ld	s2,32(sp)
    800024a6:	69e2                	ld	s3,24(sp)
    800024a8:	6a42                	ld	s4,16(sp)
    800024aa:	6aa2                	ld	s5,8(sp)
    800024ac:	6121                	add	sp,sp,64
    800024ae:	8082                	ret

00000000800024b0 <reparent>:
{
    800024b0:	7179                	add	sp,sp,-48
    800024b2:	f406                	sd	ra,40(sp)
    800024b4:	f022                	sd	s0,32(sp)
    800024b6:	ec26                	sd	s1,24(sp)
    800024b8:	e84a                	sd	s2,16(sp)
    800024ba:	e44e                	sd	s3,8(sp)
    800024bc:	e052                	sd	s4,0(sp)
    800024be:	1800                	add	s0,sp,48
    800024c0:	892a                	mv	s2,a0
  for (pp = proc; pp < &proc[NPROC]; pp++)
    800024c2:	0002f497          	auipc	s1,0x2f
    800024c6:	af648493          	add	s1,s1,-1290 # 80030fb8 <proc>
      pp->parent = initproc;
    800024ca:	00006a17          	auipc	s4,0x6
    800024ce:	42ea0a13          	add	s4,s4,1070 # 800088f8 <initproc>
  for (pp = proc; pp < &proc[NPROC]; pp++)
    800024d2:	00035997          	auipc	s3,0x35
    800024d6:	ee698993          	add	s3,s3,-282 # 800373b8 <tickslock>
    800024da:	a029                	j	800024e4 <reparent+0x34>
    800024dc:	19048493          	add	s1,s1,400
    800024e0:	01348d63          	beq	s1,s3,800024fa <reparent+0x4a>
    if (pp->parent == p)
    800024e4:	7c9c                	ld	a5,56(s1)
    800024e6:	ff279be3          	bne	a5,s2,800024dc <reparent+0x2c>
      pp->parent = initproc;
    800024ea:	000a3503          	ld	a0,0(s4)
    800024ee:	fc88                	sd	a0,56(s1)
      wakeup(initproc);
    800024f0:	00000097          	auipc	ra,0x0
    800024f4:	f4a080e7          	jalr	-182(ra) # 8000243a <wakeup>
    800024f8:	b7d5                	j	800024dc <reparent+0x2c>
}
    800024fa:	70a2                	ld	ra,40(sp)
    800024fc:	7402                	ld	s0,32(sp)
    800024fe:	64e2                	ld	s1,24(sp)
    80002500:	6942                	ld	s2,16(sp)
    80002502:	69a2                	ld	s3,8(sp)
    80002504:	6a02                	ld	s4,0(sp)
    80002506:	6145                	add	sp,sp,48
    80002508:	8082                	ret

000000008000250a <exit>:
{
    8000250a:	7179                	add	sp,sp,-48
    8000250c:	f406                	sd	ra,40(sp)
    8000250e:	f022                	sd	s0,32(sp)
    80002510:	ec26                	sd	s1,24(sp)
    80002512:	e84a                	sd	s2,16(sp)
    80002514:	e44e                	sd	s3,8(sp)
    80002516:	e052                	sd	s4,0(sp)
    80002518:	1800                	add	s0,sp,48
    8000251a:	8a2a                	mv	s4,a0
  struct proc *p = myproc();
    8000251c:	fffff097          	auipc	ra,0xfffff
    80002520:	6e8080e7          	jalr	1768(ra) # 80001c04 <myproc>
    80002524:	89aa                	mv	s3,a0
  if (p == initproc)
    80002526:	00006797          	auipc	a5,0x6
    8000252a:	3d27b783          	ld	a5,978(a5) # 800088f8 <initproc>
    8000252e:	0d050493          	add	s1,a0,208
    80002532:	15050913          	add	s2,a0,336
    80002536:	02a79363          	bne	a5,a0,8000255c <exit+0x52>
    panic("init exiting");
    8000253a:	00006517          	auipc	a0,0x6
    8000253e:	d4650513          	add	a0,a0,-698 # 80008280 <digits+0x240>
    80002542:	ffffe097          	auipc	ra,0xffffe
    80002546:	ffa080e7          	jalr	-6(ra) # 8000053c <panic>
      fileclose(f);
    8000254a:	00002097          	auipc	ra,0x2
    8000254e:	640080e7          	jalr	1600(ra) # 80004b8a <fileclose>
      p->ofile[fd] = 0;
    80002552:	0004b023          	sd	zero,0(s1)
  for (int fd = 0; fd < NOFILE; fd++)
    80002556:	04a1                	add	s1,s1,8
    80002558:	01248563          	beq	s1,s2,80002562 <exit+0x58>
    if (p->ofile[fd])
    8000255c:	6088                	ld	a0,0(s1)
    8000255e:	f575                	bnez	a0,8000254a <exit+0x40>
    80002560:	bfdd                	j	80002556 <exit+0x4c>
  begin_op();
    80002562:	00002097          	auipc	ra,0x2
    80002566:	164080e7          	jalr	356(ra) # 800046c6 <begin_op>
  iput(p->cwd);
    8000256a:	1509b503          	ld	a0,336(s3)
    8000256e:	00002097          	auipc	ra,0x2
    80002572:	96c080e7          	jalr	-1684(ra) # 80003eda <iput>
  end_op();
    80002576:	00002097          	auipc	ra,0x2
    8000257a:	1ca080e7          	jalr	458(ra) # 80004740 <end_op>
  p->cwd = 0;
    8000257e:	1409b823          	sd	zero,336(s3)
  acquire(&wait_lock);
    80002582:	0002e497          	auipc	s1,0x2e
    80002586:	61e48493          	add	s1,s1,1566 # 80030ba0 <wait_lock>
    8000258a:	8526                	mv	a0,s1
    8000258c:	fffff097          	auipc	ra,0xfffff
    80002590:	8ac080e7          	jalr	-1876(ra) # 80000e38 <acquire>
  reparent(p);
    80002594:	854e                	mv	a0,s3
    80002596:	00000097          	auipc	ra,0x0
    8000259a:	f1a080e7          	jalr	-230(ra) # 800024b0 <reparent>
  wakeup(p->parent);
    8000259e:	0389b503          	ld	a0,56(s3)
    800025a2:	00000097          	auipc	ra,0x0
    800025a6:	e98080e7          	jalr	-360(ra) # 8000243a <wakeup>
  acquire(&p->lock);
    800025aa:	854e                	mv	a0,s3
    800025ac:	fffff097          	auipc	ra,0xfffff
    800025b0:	88c080e7          	jalr	-1908(ra) # 80000e38 <acquire>
  p->xstate = status;
    800025b4:	0349a623          	sw	s4,44(s3)
  p->state = ZOMBIE;
    800025b8:	4795                	li	a5,5
    800025ba:	00f9ac23          	sw	a5,24(s3)
  p->etime = ticks;
    800025be:	00006797          	auipc	a5,0x6
    800025c2:	3427a783          	lw	a5,834(a5) # 80008900 <ticks>
    800025c6:	16f9a823          	sw	a5,368(s3)
  release(&wait_lock);
    800025ca:	8526                	mv	a0,s1
    800025cc:	fffff097          	auipc	ra,0xfffff
    800025d0:	920080e7          	jalr	-1760(ra) # 80000eec <release>
  sched();
    800025d4:	00000097          	auipc	ra,0x0
    800025d8:	cf0080e7          	jalr	-784(ra) # 800022c4 <sched>
  panic("zombie exit");
    800025dc:	00006517          	auipc	a0,0x6
    800025e0:	cb450513          	add	a0,a0,-844 # 80008290 <digits+0x250>
    800025e4:	ffffe097          	auipc	ra,0xffffe
    800025e8:	f58080e7          	jalr	-168(ra) # 8000053c <panic>

00000000800025ec <kill>:

// Kill the process with the given pid.
// The victim won't exit until it tries to return
// to user space (see usertrap() in trap.c).
int kill(int pid)
{
    800025ec:	7179                	add	sp,sp,-48
    800025ee:	f406                	sd	ra,40(sp)
    800025f0:	f022                	sd	s0,32(sp)
    800025f2:	ec26                	sd	s1,24(sp)
    800025f4:	e84a                	sd	s2,16(sp)
    800025f6:	e44e                	sd	s3,8(sp)
    800025f8:	1800                	add	s0,sp,48
    800025fa:	892a                	mv	s2,a0
  struct proc *p;

  for (p = proc; p < &proc[NPROC]; p++)
    800025fc:	0002f497          	auipc	s1,0x2f
    80002600:	9bc48493          	add	s1,s1,-1604 # 80030fb8 <proc>
    80002604:	00035997          	auipc	s3,0x35
    80002608:	db498993          	add	s3,s3,-588 # 800373b8 <tickslock>
  {
    acquire(&p->lock);
    8000260c:	8526                	mv	a0,s1
    8000260e:	fffff097          	auipc	ra,0xfffff
    80002612:	82a080e7          	jalr	-2006(ra) # 80000e38 <acquire>
    if (p->pid == pid)
    80002616:	589c                	lw	a5,48(s1)
    80002618:	01278d63          	beq	a5,s2,80002632 <kill+0x46>
        p->state = RUNNABLE;
      }
      release(&p->lock);
      return 0;
    }
    release(&p->lock);
    8000261c:	8526                	mv	a0,s1
    8000261e:	fffff097          	auipc	ra,0xfffff
    80002622:	8ce080e7          	jalr	-1842(ra) # 80000eec <release>
  for (p = proc; p < &proc[NPROC]; p++)
    80002626:	19048493          	add	s1,s1,400
    8000262a:	ff3491e3          	bne	s1,s3,8000260c <kill+0x20>
  }
  return -1;
    8000262e:	557d                	li	a0,-1
    80002630:	a829                	j	8000264a <kill+0x5e>
      p->killed = 1;
    80002632:	4785                	li	a5,1
    80002634:	d49c                	sw	a5,40(s1)
      if (p->state == SLEEPING)
    80002636:	4c98                	lw	a4,24(s1)
    80002638:	4789                	li	a5,2
    8000263a:	00f70f63          	beq	a4,a5,80002658 <kill+0x6c>
      release(&p->lock);
    8000263e:	8526                	mv	a0,s1
    80002640:	fffff097          	auipc	ra,0xfffff
    80002644:	8ac080e7          	jalr	-1876(ra) # 80000eec <release>
      return 0;
    80002648:	4501                	li	a0,0
}
    8000264a:	70a2                	ld	ra,40(sp)
    8000264c:	7402                	ld	s0,32(sp)
    8000264e:	64e2                	ld	s1,24(sp)
    80002650:	6942                	ld	s2,16(sp)
    80002652:	69a2                	ld	s3,8(sp)
    80002654:	6145                	add	sp,sp,48
    80002656:	8082                	ret
        p->state = RUNNABLE;
    80002658:	478d                	li	a5,3
    8000265a:	cc9c                	sw	a5,24(s1)
    8000265c:	b7cd                	j	8000263e <kill+0x52>

000000008000265e <setkilled>:

void setkilled(struct proc *p)
{
    8000265e:	1101                	add	sp,sp,-32
    80002660:	ec06                	sd	ra,24(sp)
    80002662:	e822                	sd	s0,16(sp)
    80002664:	e426                	sd	s1,8(sp)
    80002666:	1000                	add	s0,sp,32
    80002668:	84aa                	mv	s1,a0
  acquire(&p->lock);
    8000266a:	ffffe097          	auipc	ra,0xffffe
    8000266e:	7ce080e7          	jalr	1998(ra) # 80000e38 <acquire>
  p->killed = 1;
    80002672:	4785                	li	a5,1
    80002674:	d49c                	sw	a5,40(s1)
  release(&p->lock);
    80002676:	8526                	mv	a0,s1
    80002678:	fffff097          	auipc	ra,0xfffff
    8000267c:	874080e7          	jalr	-1932(ra) # 80000eec <release>
}
    80002680:	60e2                	ld	ra,24(sp)
    80002682:	6442                	ld	s0,16(sp)
    80002684:	64a2                	ld	s1,8(sp)
    80002686:	6105                	add	sp,sp,32
    80002688:	8082                	ret

000000008000268a <killed>:

int killed(struct proc *p)
{
    8000268a:	1101                	add	sp,sp,-32
    8000268c:	ec06                	sd	ra,24(sp)
    8000268e:	e822                	sd	s0,16(sp)
    80002690:	e426                	sd	s1,8(sp)
    80002692:	e04a                	sd	s2,0(sp)
    80002694:	1000                	add	s0,sp,32
    80002696:	84aa                	mv	s1,a0
  int k;

  acquire(&p->lock);
    80002698:	ffffe097          	auipc	ra,0xffffe
    8000269c:	7a0080e7          	jalr	1952(ra) # 80000e38 <acquire>
  k = p->killed;
    800026a0:	0284a903          	lw	s2,40(s1)
  release(&p->lock);
    800026a4:	8526                	mv	a0,s1
    800026a6:	fffff097          	auipc	ra,0xfffff
    800026aa:	846080e7          	jalr	-1978(ra) # 80000eec <release>
  return k;
}
    800026ae:	854a                	mv	a0,s2
    800026b0:	60e2                	ld	ra,24(sp)
    800026b2:	6442                	ld	s0,16(sp)
    800026b4:	64a2                	ld	s1,8(sp)
    800026b6:	6902                	ld	s2,0(sp)
    800026b8:	6105                	add	sp,sp,32
    800026ba:	8082                	ret

00000000800026bc <wait>:
{
    800026bc:	715d                	add	sp,sp,-80
    800026be:	e486                	sd	ra,72(sp)
    800026c0:	e0a2                	sd	s0,64(sp)
    800026c2:	fc26                	sd	s1,56(sp)
    800026c4:	f84a                	sd	s2,48(sp)
    800026c6:	f44e                	sd	s3,40(sp)
    800026c8:	f052                	sd	s4,32(sp)
    800026ca:	ec56                	sd	s5,24(sp)
    800026cc:	e85a                	sd	s6,16(sp)
    800026ce:	e45e                	sd	s7,8(sp)
    800026d0:	e062                	sd	s8,0(sp)
    800026d2:	0880                	add	s0,sp,80
    800026d4:	8b2a                	mv	s6,a0
  struct proc *p = myproc();
    800026d6:	fffff097          	auipc	ra,0xfffff
    800026da:	52e080e7          	jalr	1326(ra) # 80001c04 <myproc>
    800026de:	892a                	mv	s2,a0
  acquire(&wait_lock);
    800026e0:	0002e517          	auipc	a0,0x2e
    800026e4:	4c050513          	add	a0,a0,1216 # 80030ba0 <wait_lock>
    800026e8:	ffffe097          	auipc	ra,0xffffe
    800026ec:	750080e7          	jalr	1872(ra) # 80000e38 <acquire>
    havekids = 0;
    800026f0:	4b81                	li	s7,0
        if (pp->state == ZOMBIE)
    800026f2:	4a15                	li	s4,5
        havekids = 1;
    800026f4:	4a85                	li	s5,1
    for (pp = proc; pp < &proc[NPROC]; pp++)
    800026f6:	00035997          	auipc	s3,0x35
    800026fa:	cc298993          	add	s3,s3,-830 # 800373b8 <tickslock>
    sleep(p, &wait_lock); // DOC: wait-sleep
    800026fe:	0002ec17          	auipc	s8,0x2e
    80002702:	4a2c0c13          	add	s8,s8,1186 # 80030ba0 <wait_lock>
    80002706:	a0d1                	j	800027ca <wait+0x10e>
          pid = pp->pid;
    80002708:	0304a983          	lw	s3,48(s1)
          if (addr != 0 && copyout(p->pagetable, addr, (char *)&pp->xstate,
    8000270c:	000b0e63          	beqz	s6,80002728 <wait+0x6c>
    80002710:	4691                	li	a3,4
    80002712:	02c48613          	add	a2,s1,44
    80002716:	85da                	mv	a1,s6
    80002718:	05093503          	ld	a0,80(s2)
    8000271c:	fffff097          	auipc	ra,0xfffff
    80002720:	19e080e7          	jalr	414(ra) # 800018ba <copyout>
    80002724:	04054163          	bltz	a0,80002766 <wait+0xaa>
          freeproc(pp);
    80002728:	8526                	mv	a0,s1
    8000272a:	fffff097          	auipc	ra,0xfffff
    8000272e:	68c080e7          	jalr	1676(ra) # 80001db6 <freeproc>
          release(&pp->lock);
    80002732:	8526                	mv	a0,s1
    80002734:	ffffe097          	auipc	ra,0xffffe
    80002738:	7b8080e7          	jalr	1976(ra) # 80000eec <release>
          release(&wait_lock);
    8000273c:	0002e517          	auipc	a0,0x2e
    80002740:	46450513          	add	a0,a0,1124 # 80030ba0 <wait_lock>
    80002744:	ffffe097          	auipc	ra,0xffffe
    80002748:	7a8080e7          	jalr	1960(ra) # 80000eec <release>
}
    8000274c:	854e                	mv	a0,s3
    8000274e:	60a6                	ld	ra,72(sp)
    80002750:	6406                	ld	s0,64(sp)
    80002752:	74e2                	ld	s1,56(sp)
    80002754:	7942                	ld	s2,48(sp)
    80002756:	79a2                	ld	s3,40(sp)
    80002758:	7a02                	ld	s4,32(sp)
    8000275a:	6ae2                	ld	s5,24(sp)
    8000275c:	6b42                	ld	s6,16(sp)
    8000275e:	6ba2                	ld	s7,8(sp)
    80002760:	6c02                	ld	s8,0(sp)
    80002762:	6161                	add	sp,sp,80
    80002764:	8082                	ret
            release(&pp->lock);
    80002766:	8526                	mv	a0,s1
    80002768:	ffffe097          	auipc	ra,0xffffe
    8000276c:	784080e7          	jalr	1924(ra) # 80000eec <release>
            release(&wait_lock);
    80002770:	0002e517          	auipc	a0,0x2e
    80002774:	43050513          	add	a0,a0,1072 # 80030ba0 <wait_lock>
    80002778:	ffffe097          	auipc	ra,0xffffe
    8000277c:	774080e7          	jalr	1908(ra) # 80000eec <release>
            return -1;
    80002780:	59fd                	li	s3,-1
    80002782:	b7e9                	j	8000274c <wait+0x90>
    for (pp = proc; pp < &proc[NPROC]; pp++)
    80002784:	19048493          	add	s1,s1,400
    80002788:	03348463          	beq	s1,s3,800027b0 <wait+0xf4>
      if (pp->parent == p)
    8000278c:	7c9c                	ld	a5,56(s1)
    8000278e:	ff279be3          	bne	a5,s2,80002784 <wait+0xc8>
        acquire(&pp->lock);
    80002792:	8526                	mv	a0,s1
    80002794:	ffffe097          	auipc	ra,0xffffe
    80002798:	6a4080e7          	jalr	1700(ra) # 80000e38 <acquire>
        if (pp->state == ZOMBIE)
    8000279c:	4c9c                	lw	a5,24(s1)
    8000279e:	f74785e3          	beq	a5,s4,80002708 <wait+0x4c>
        release(&pp->lock);
    800027a2:	8526                	mv	a0,s1
    800027a4:	ffffe097          	auipc	ra,0xffffe
    800027a8:	748080e7          	jalr	1864(ra) # 80000eec <release>
        havekids = 1;
    800027ac:	8756                	mv	a4,s5
    800027ae:	bfd9                	j	80002784 <wait+0xc8>
    if (!havekids || killed(p))
    800027b0:	c31d                	beqz	a4,800027d6 <wait+0x11a>
    800027b2:	854a                	mv	a0,s2
    800027b4:	00000097          	auipc	ra,0x0
    800027b8:	ed6080e7          	jalr	-298(ra) # 8000268a <killed>
    800027bc:	ed09                	bnez	a0,800027d6 <wait+0x11a>
    sleep(p, &wait_lock); // DOC: wait-sleep
    800027be:	85e2                	mv	a1,s8
    800027c0:	854a                	mv	a0,s2
    800027c2:	00000097          	auipc	ra,0x0
    800027c6:	c14080e7          	jalr	-1004(ra) # 800023d6 <sleep>
    havekids = 0;
    800027ca:	875e                	mv	a4,s7
    for (pp = proc; pp < &proc[NPROC]; pp++)
    800027cc:	0002e497          	auipc	s1,0x2e
    800027d0:	7ec48493          	add	s1,s1,2028 # 80030fb8 <proc>
    800027d4:	bf65                	j	8000278c <wait+0xd0>
      release(&wait_lock);
    800027d6:	0002e517          	auipc	a0,0x2e
    800027da:	3ca50513          	add	a0,a0,970 # 80030ba0 <wait_lock>
    800027de:	ffffe097          	auipc	ra,0xffffe
    800027e2:	70e080e7          	jalr	1806(ra) # 80000eec <release>
      return -1;
    800027e6:	59fd                	li	s3,-1
    800027e8:	b795                	j	8000274c <wait+0x90>

00000000800027ea <either_copyout>:

// Copy to either a user address, or kernel address,
// depending on usr_dst.
// Returns 0 on success, -1 on error.
int either_copyout(int user_dst, uint64 dst, void *src, uint64 len)
{
    800027ea:	7179                	add	sp,sp,-48
    800027ec:	f406                	sd	ra,40(sp)
    800027ee:	f022                	sd	s0,32(sp)
    800027f0:	ec26                	sd	s1,24(sp)
    800027f2:	e84a                	sd	s2,16(sp)
    800027f4:	e44e                	sd	s3,8(sp)
    800027f6:	e052                	sd	s4,0(sp)
    800027f8:	1800                	add	s0,sp,48
    800027fa:	84aa                	mv	s1,a0
    800027fc:	892e                	mv	s2,a1
    800027fe:	89b2                	mv	s3,a2
    80002800:	8a36                	mv	s4,a3
  struct proc *p = myproc();
    80002802:	fffff097          	auipc	ra,0xfffff
    80002806:	402080e7          	jalr	1026(ra) # 80001c04 <myproc>
  if (user_dst)
    8000280a:	c08d                	beqz	s1,8000282c <either_copyout+0x42>
  {
    return copyout(p->pagetable, dst, src, len);
    8000280c:	86d2                	mv	a3,s4
    8000280e:	864e                	mv	a2,s3
    80002810:	85ca                	mv	a1,s2
    80002812:	6928                	ld	a0,80(a0)
    80002814:	fffff097          	auipc	ra,0xfffff
    80002818:	0a6080e7          	jalr	166(ra) # 800018ba <copyout>
  else
  {
    memmove((char *)dst, src, len);
    return 0;
  }
}
    8000281c:	70a2                	ld	ra,40(sp)
    8000281e:	7402                	ld	s0,32(sp)
    80002820:	64e2                	ld	s1,24(sp)
    80002822:	6942                	ld	s2,16(sp)
    80002824:	69a2                	ld	s3,8(sp)
    80002826:	6a02                	ld	s4,0(sp)
    80002828:	6145                	add	sp,sp,48
    8000282a:	8082                	ret
    memmove((char *)dst, src, len);
    8000282c:	000a061b          	sext.w	a2,s4
    80002830:	85ce                	mv	a1,s3
    80002832:	854a                	mv	a0,s2
    80002834:	ffffe097          	auipc	ra,0xffffe
    80002838:	75c080e7          	jalr	1884(ra) # 80000f90 <memmove>
    return 0;
    8000283c:	8526                	mv	a0,s1
    8000283e:	bff9                	j	8000281c <either_copyout+0x32>

0000000080002840 <either_copyin>:

// Copy from either a user address, or kernel address,
// depending on usr_src.
// Returns 0 on success, -1 on error.
int either_copyin(void *dst, int user_src, uint64 src, uint64 len)
{
    80002840:	7179                	add	sp,sp,-48
    80002842:	f406                	sd	ra,40(sp)
    80002844:	f022                	sd	s0,32(sp)
    80002846:	ec26                	sd	s1,24(sp)
    80002848:	e84a                	sd	s2,16(sp)
    8000284a:	e44e                	sd	s3,8(sp)
    8000284c:	e052                	sd	s4,0(sp)
    8000284e:	1800                	add	s0,sp,48
    80002850:	892a                	mv	s2,a0
    80002852:	84ae                	mv	s1,a1
    80002854:	89b2                	mv	s3,a2
    80002856:	8a36                	mv	s4,a3
  struct proc *p = myproc();
    80002858:	fffff097          	auipc	ra,0xfffff
    8000285c:	3ac080e7          	jalr	940(ra) # 80001c04 <myproc>
  if (user_src)
    80002860:	c08d                	beqz	s1,80002882 <either_copyin+0x42>
  {
    return copyin(p->pagetable, dst, src, len);
    80002862:	86d2                	mv	a3,s4
    80002864:	864e                	mv	a2,s3
    80002866:	85ca                	mv	a1,s2
    80002868:	6928                	ld	a0,80(a0)
    8000286a:	fffff097          	auipc	ra,0xfffff
    8000286e:	0e6080e7          	jalr	230(ra) # 80001950 <copyin>
  else
  {
    memmove(dst, (char *)src, len);
    return 0;
  }
}
    80002872:	70a2                	ld	ra,40(sp)
    80002874:	7402                	ld	s0,32(sp)
    80002876:	64e2                	ld	s1,24(sp)
    80002878:	6942                	ld	s2,16(sp)
    8000287a:	69a2                	ld	s3,8(sp)
    8000287c:	6a02                	ld	s4,0(sp)
    8000287e:	6145                	add	sp,sp,48
    80002880:	8082                	ret
    memmove(dst, (char *)src, len);
    80002882:	000a061b          	sext.w	a2,s4
    80002886:	85ce                	mv	a1,s3
    80002888:	854a                	mv	a0,s2
    8000288a:	ffffe097          	auipc	ra,0xffffe
    8000288e:	706080e7          	jalr	1798(ra) # 80000f90 <memmove>
    return 0;
    80002892:	8526                	mv	a0,s1
    80002894:	bff9                	j	80002872 <either_copyin+0x32>

0000000080002896 <procdump>:

// Print a process listing to console.  For debugging.
// Runs when user types ^P on console.
// No lock to avoid wedging a stuck machine further.
void procdump(void)
{
    80002896:	715d                	add	sp,sp,-80
    80002898:	e486                	sd	ra,72(sp)
    8000289a:	e0a2                	sd	s0,64(sp)
    8000289c:	fc26                	sd	s1,56(sp)
    8000289e:	f84a                	sd	s2,48(sp)
    800028a0:	f44e                	sd	s3,40(sp)
    800028a2:	f052                	sd	s4,32(sp)
    800028a4:	ec56                	sd	s5,24(sp)
    800028a6:	e85a                	sd	s6,16(sp)
    800028a8:	e45e                	sd	s7,8(sp)
    800028aa:	0880                	add	s0,sp,80
      [RUNNING] "run   ",
      [ZOMBIE] "zombie"};
  struct proc *p;
  char *state;

  printf("\n");
    800028ac:	00006517          	auipc	a0,0x6
    800028b0:	83c50513          	add	a0,a0,-1988 # 800080e8 <digits+0xa8>
    800028b4:	ffffe097          	auipc	ra,0xffffe
    800028b8:	cd2080e7          	jalr	-814(ra) # 80000586 <printf>
  for (p = proc; p < &proc[NPROC]; p++)
    800028bc:	0002f497          	auipc	s1,0x2f
    800028c0:	85448493          	add	s1,s1,-1964 # 80031110 <proc+0x158>
    800028c4:	00035917          	auipc	s2,0x35
    800028c8:	c4c90913          	add	s2,s2,-948 # 80037510 <bcache+0x140>
  {
    if (p->state == UNUSED)
      continue;
    if (p->state >= 0 && p->state < NELEM(states) && states[p->state])
    800028cc:	4b15                	li	s6,5
      state = states[p->state];
    else
      state = "???";
    800028ce:	00006997          	auipc	s3,0x6
    800028d2:	9d298993          	add	s3,s3,-1582 # 800082a0 <digits+0x260>
    printf("%d %s %s", p->pid, state, p->name);
    800028d6:	00006a97          	auipc	s5,0x6
    800028da:	9d2a8a93          	add	s5,s5,-1582 # 800082a8 <digits+0x268>
    printf("\n");
    800028de:	00006a17          	auipc	s4,0x6
    800028e2:	80aa0a13          	add	s4,s4,-2038 # 800080e8 <digits+0xa8>
    if (p->state >= 0 && p->state < NELEM(states) && states[p->state])
    800028e6:	00006b97          	auipc	s7,0x6
    800028ea:	a02b8b93          	add	s7,s7,-1534 # 800082e8 <states.0>
    800028ee:	a00d                	j	80002910 <procdump+0x7a>
    printf("%d %s %s", p->pid, state, p->name);
    800028f0:	ed86a583          	lw	a1,-296(a3)
    800028f4:	8556                	mv	a0,s5
    800028f6:	ffffe097          	auipc	ra,0xffffe
    800028fa:	c90080e7          	jalr	-880(ra) # 80000586 <printf>
    printf("\n");
    800028fe:	8552                	mv	a0,s4
    80002900:	ffffe097          	auipc	ra,0xffffe
    80002904:	c86080e7          	jalr	-890(ra) # 80000586 <printf>
  for (p = proc; p < &proc[NPROC]; p++)
    80002908:	19048493          	add	s1,s1,400
    8000290c:	03248263          	beq	s1,s2,80002930 <procdump+0x9a>
    if (p->state == UNUSED)
    80002910:	86a6                	mv	a3,s1
    80002912:	ec04a783          	lw	a5,-320(s1)
    80002916:	dbed                	beqz	a5,80002908 <procdump+0x72>
      state = "???";
    80002918:	864e                	mv	a2,s3
    if (p->state >= 0 && p->state < NELEM(states) && states[p->state])
    8000291a:	fcfb6be3          	bltu	s6,a5,800028f0 <procdump+0x5a>
    8000291e:	02079713          	sll	a4,a5,0x20
    80002922:	01d75793          	srl	a5,a4,0x1d
    80002926:	97de                	add	a5,a5,s7
    80002928:	6390                	ld	a2,0(a5)
    8000292a:	f279                	bnez	a2,800028f0 <procdump+0x5a>
      state = "???";
    8000292c:	864e                	mv	a2,s3
    8000292e:	b7c9                	j	800028f0 <procdump+0x5a>
  }
}
    80002930:	60a6                	ld	ra,72(sp)
    80002932:	6406                	ld	s0,64(sp)
    80002934:	74e2                	ld	s1,56(sp)
    80002936:	7942                	ld	s2,48(sp)
    80002938:	79a2                	ld	s3,40(sp)
    8000293a:	7a02                	ld	s4,32(sp)
    8000293c:	6ae2                	ld	s5,24(sp)
    8000293e:	6b42                	ld	s6,16(sp)
    80002940:	6ba2                	ld	s7,8(sp)
    80002942:	6161                	add	sp,sp,80
    80002944:	8082                	ret

0000000080002946 <waitx>:

// waitx
int waitx(uint64 addr, uint *wtime, uint *rtime)
{
    80002946:	711d                	add	sp,sp,-96
    80002948:	ec86                	sd	ra,88(sp)
    8000294a:	e8a2                	sd	s0,80(sp)
    8000294c:	e4a6                	sd	s1,72(sp)
    8000294e:	e0ca                	sd	s2,64(sp)
    80002950:	fc4e                	sd	s3,56(sp)
    80002952:	f852                	sd	s4,48(sp)
    80002954:	f456                	sd	s5,40(sp)
    80002956:	f05a                	sd	s6,32(sp)
    80002958:	ec5e                	sd	s7,24(sp)
    8000295a:	e862                	sd	s8,16(sp)
    8000295c:	e466                	sd	s9,8(sp)
    8000295e:	e06a                	sd	s10,0(sp)
    80002960:	1080                	add	s0,sp,96
    80002962:	8b2a                	mv	s6,a0
    80002964:	8bae                	mv	s7,a1
    80002966:	8c32                	mv	s8,a2
  struct proc *np;
  int havekids, pid;
  struct proc *p = myproc();
    80002968:	fffff097          	auipc	ra,0xfffff
    8000296c:	29c080e7          	jalr	668(ra) # 80001c04 <myproc>
    80002970:	892a                	mv	s2,a0

  acquire(&wait_lock);
    80002972:	0002e517          	auipc	a0,0x2e
    80002976:	22e50513          	add	a0,a0,558 # 80030ba0 <wait_lock>
    8000297a:	ffffe097          	auipc	ra,0xffffe
    8000297e:	4be080e7          	jalr	1214(ra) # 80000e38 <acquire>

  for (;;)
  {
    // Scan through table looking for exited children.
    havekids = 0;
    80002982:	4c81                	li	s9,0
      {
        // make sure the child isn't still in exit() or swtch().
        acquire(&np->lock);

        havekids = 1;
        if (np->state == ZOMBIE)
    80002984:	4a15                	li	s4,5
        havekids = 1;
    80002986:	4a85                	li	s5,1
    for (np = proc; np < &proc[NPROC]; np++)
    80002988:	00035997          	auipc	s3,0x35
    8000298c:	a3098993          	add	s3,s3,-1488 # 800373b8 <tickslock>
      release(&wait_lock);
      return -1;
    }

    // Wait for a child to exit.
    sleep(p, &wait_lock); // DOC: wait-sleep
    80002990:	0002ed17          	auipc	s10,0x2e
    80002994:	210d0d13          	add	s10,s10,528 # 80030ba0 <wait_lock>
    80002998:	a8e9                	j	80002a72 <waitx+0x12c>
          pid = np->pid;
    8000299a:	0304a983          	lw	s3,48(s1)
          *rtime = np->rtime;
    8000299e:	1684a783          	lw	a5,360(s1)
    800029a2:	00fc2023          	sw	a5,0(s8)
          *wtime = np->etime - np->ctime - np->rtime;
    800029a6:	16c4a703          	lw	a4,364(s1)
    800029aa:	9f3d                	addw	a4,a4,a5
    800029ac:	1704a783          	lw	a5,368(s1)
    800029b0:	9f99                	subw	a5,a5,a4
    800029b2:	00fba023          	sw	a5,0(s7)
          if (addr != 0 && copyout(p->pagetable, addr, (char *)&np->xstate,
    800029b6:	000b0e63          	beqz	s6,800029d2 <waitx+0x8c>
    800029ba:	4691                	li	a3,4
    800029bc:	02c48613          	add	a2,s1,44
    800029c0:	85da                	mv	a1,s6
    800029c2:	05093503          	ld	a0,80(s2)
    800029c6:	fffff097          	auipc	ra,0xfffff
    800029ca:	ef4080e7          	jalr	-268(ra) # 800018ba <copyout>
    800029ce:	04054363          	bltz	a0,80002a14 <waitx+0xce>
          freeproc(np);
    800029d2:	8526                	mv	a0,s1
    800029d4:	fffff097          	auipc	ra,0xfffff
    800029d8:	3e2080e7          	jalr	994(ra) # 80001db6 <freeproc>
          release(&np->lock);
    800029dc:	8526                	mv	a0,s1
    800029de:	ffffe097          	auipc	ra,0xffffe
    800029e2:	50e080e7          	jalr	1294(ra) # 80000eec <release>
          release(&wait_lock);
    800029e6:	0002e517          	auipc	a0,0x2e
    800029ea:	1ba50513          	add	a0,a0,442 # 80030ba0 <wait_lock>
    800029ee:	ffffe097          	auipc	ra,0xffffe
    800029f2:	4fe080e7          	jalr	1278(ra) # 80000eec <release>
  }
}
    800029f6:	854e                	mv	a0,s3
    800029f8:	60e6                	ld	ra,88(sp)
    800029fa:	6446                	ld	s0,80(sp)
    800029fc:	64a6                	ld	s1,72(sp)
    800029fe:	6906                	ld	s2,64(sp)
    80002a00:	79e2                	ld	s3,56(sp)
    80002a02:	7a42                	ld	s4,48(sp)
    80002a04:	7aa2                	ld	s5,40(sp)
    80002a06:	7b02                	ld	s6,32(sp)
    80002a08:	6be2                	ld	s7,24(sp)
    80002a0a:	6c42                	ld	s8,16(sp)
    80002a0c:	6ca2                	ld	s9,8(sp)
    80002a0e:	6d02                	ld	s10,0(sp)
    80002a10:	6125                	add	sp,sp,96
    80002a12:	8082                	ret
            release(&np->lock);
    80002a14:	8526                	mv	a0,s1
    80002a16:	ffffe097          	auipc	ra,0xffffe
    80002a1a:	4d6080e7          	jalr	1238(ra) # 80000eec <release>
            release(&wait_lock);
    80002a1e:	0002e517          	auipc	a0,0x2e
    80002a22:	18250513          	add	a0,a0,386 # 80030ba0 <wait_lock>
    80002a26:	ffffe097          	auipc	ra,0xffffe
    80002a2a:	4c6080e7          	jalr	1222(ra) # 80000eec <release>
            return -1;
    80002a2e:	59fd                	li	s3,-1
    80002a30:	b7d9                	j	800029f6 <waitx+0xb0>
    for (np = proc; np < &proc[NPROC]; np++)
    80002a32:	19048493          	add	s1,s1,400
    80002a36:	03348463          	beq	s1,s3,80002a5e <waitx+0x118>
      if (np->parent == p)
    80002a3a:	7c9c                	ld	a5,56(s1)
    80002a3c:	ff279be3          	bne	a5,s2,80002a32 <waitx+0xec>
        acquire(&np->lock);
    80002a40:	8526                	mv	a0,s1
    80002a42:	ffffe097          	auipc	ra,0xffffe
    80002a46:	3f6080e7          	jalr	1014(ra) # 80000e38 <acquire>
        if (np->state == ZOMBIE)
    80002a4a:	4c9c                	lw	a5,24(s1)
    80002a4c:	f54787e3          	beq	a5,s4,8000299a <waitx+0x54>
        release(&np->lock);
    80002a50:	8526                	mv	a0,s1
    80002a52:	ffffe097          	auipc	ra,0xffffe
    80002a56:	49a080e7          	jalr	1178(ra) # 80000eec <release>
        havekids = 1;
    80002a5a:	8756                	mv	a4,s5
    80002a5c:	bfd9                	j	80002a32 <waitx+0xec>
    if (!havekids || p->killed)
    80002a5e:	c305                	beqz	a4,80002a7e <waitx+0x138>
    80002a60:	02892783          	lw	a5,40(s2)
    80002a64:	ef89                	bnez	a5,80002a7e <waitx+0x138>
    sleep(p, &wait_lock); // DOC: wait-sleep
    80002a66:	85ea                	mv	a1,s10
    80002a68:	854a                	mv	a0,s2
    80002a6a:	00000097          	auipc	ra,0x0
    80002a6e:	96c080e7          	jalr	-1684(ra) # 800023d6 <sleep>
    havekids = 0;
    80002a72:	8766                	mv	a4,s9
    for (np = proc; np < &proc[NPROC]; np++)
    80002a74:	0002e497          	auipc	s1,0x2e
    80002a78:	54448493          	add	s1,s1,1348 # 80030fb8 <proc>
    80002a7c:	bf7d                	j	80002a3a <waitx+0xf4>
      release(&wait_lock);
    80002a7e:	0002e517          	auipc	a0,0x2e
    80002a82:	12250513          	add	a0,a0,290 # 80030ba0 <wait_lock>
    80002a86:	ffffe097          	auipc	ra,0xffffe
    80002a8a:	466080e7          	jalr	1126(ra) # 80000eec <release>
      return -1;
    80002a8e:	59fd                	li	s3,-1
    80002a90:	b79d                	j	800029f6 <waitx+0xb0>

0000000080002a92 <update_time>:

void update_time()
{
    80002a92:	7139                	add	sp,sp,-64
    80002a94:	fc06                	sd	ra,56(sp)
    80002a96:	f822                	sd	s0,48(sp)
    80002a98:	f426                	sd	s1,40(sp)
    80002a9a:	f04a                	sd	s2,32(sp)
    80002a9c:	ec4e                	sd	s3,24(sp)
    80002a9e:	e852                	sd	s4,16(sp)
    80002aa0:	e456                	sd	s5,8(sp)
    80002aa2:	0080                	add	s0,sp,64
  struct proc *p;
  for (p = proc; p < &proc[NPROC]; p++)
    80002aa4:	0002e497          	auipc	s1,0x2e
    80002aa8:	51448493          	add	s1,s1,1300 # 80030fb8 <proc>
  {
    acquire(&p->lock);
    if (p->state == RUNNING)
    80002aac:	4991                	li	s3,4
    {
      p->rtime++;
      p->time_run++;
    }
    else if (p->state == RUNNABLE)
    80002aae:	4a0d                	li	s4,3
    {
      p->time_wait++;
    }
    else if(p->state == SLEEPING){
    80002ab0:	4a89                	li	s5,2
  for (p = proc; p < &proc[NPROC]; p++)
    80002ab2:	00035917          	auipc	s2,0x35
    80002ab6:	90690913          	add	s2,s2,-1786 # 800373b8 <tickslock>
    80002aba:	a025                	j	80002ae2 <update_time+0x50>
      p->rtime++;
    80002abc:	1684a783          	lw	a5,360(s1)
    80002ac0:	2785                	addw	a5,a5,1
    80002ac2:	16f4a423          	sw	a5,360(s1)
      p->time_run++;
    80002ac6:	17c4a783          	lw	a5,380(s1)
    80002aca:	2785                	addw	a5,a5,1
    80002acc:	16f4ae23          	sw	a5,380(s1)
      p->time_sleep++;
    }
    release(&p->lock);
    80002ad0:	8526                	mv	a0,s1
    80002ad2:	ffffe097          	auipc	ra,0xffffe
    80002ad6:	41a080e7          	jalr	1050(ra) # 80000eec <release>
  for (p = proc; p < &proc[NPROC]; p++)
    80002ada:	19048493          	add	s1,s1,400
    80002ade:	03248a63          	beq	s1,s2,80002b12 <update_time+0x80>
    acquire(&p->lock);
    80002ae2:	8526                	mv	a0,s1
    80002ae4:	ffffe097          	auipc	ra,0xffffe
    80002ae8:	354080e7          	jalr	852(ra) # 80000e38 <acquire>
    if (p->state == RUNNING)
    80002aec:	4c9c                	lw	a5,24(s1)
    80002aee:	fd3787e3          	beq	a5,s3,80002abc <update_time+0x2a>
    else if (p->state == RUNNABLE)
    80002af2:	01478a63          	beq	a5,s4,80002b06 <update_time+0x74>
    else if(p->state == SLEEPING){
    80002af6:	fd579de3          	bne	a5,s5,80002ad0 <update_time+0x3e>
      p->time_sleep++;
    80002afa:	1784a783          	lw	a5,376(s1)
    80002afe:	2785                	addw	a5,a5,1
    80002b00:	16f4ac23          	sw	a5,376(s1)
    80002b04:	b7f1                	j	80002ad0 <update_time+0x3e>
      p->time_wait++;
    80002b06:	18c4a783          	lw	a5,396(s1)
    80002b0a:	2785                	addw	a5,a5,1
    80002b0c:	18f4a623          	sw	a5,396(s1)
    80002b10:	b7c1                	j	80002ad0 <update_time+0x3e>
  }
    80002b12:	70e2                	ld	ra,56(sp)
    80002b14:	7442                	ld	s0,48(sp)
    80002b16:	74a2                	ld	s1,40(sp)
    80002b18:	7902                	ld	s2,32(sp)
    80002b1a:	69e2                	ld	s3,24(sp)
    80002b1c:	6a42                	ld	s4,16(sp)
    80002b1e:	6aa2                	ld	s5,8(sp)
    80002b20:	6121                	add	sp,sp,64
    80002b22:	8082                	ret

0000000080002b24 <swtch>:
    80002b24:	00153023          	sd	ra,0(a0)
    80002b28:	00253423          	sd	sp,8(a0)
    80002b2c:	e900                	sd	s0,16(a0)
    80002b2e:	ed04                	sd	s1,24(a0)
    80002b30:	03253023          	sd	s2,32(a0)
    80002b34:	03353423          	sd	s3,40(a0)
    80002b38:	03453823          	sd	s4,48(a0)
    80002b3c:	03553c23          	sd	s5,56(a0)
    80002b40:	05653023          	sd	s6,64(a0)
    80002b44:	05753423          	sd	s7,72(a0)
    80002b48:	05853823          	sd	s8,80(a0)
    80002b4c:	05953c23          	sd	s9,88(a0)
    80002b50:	07a53023          	sd	s10,96(a0)
    80002b54:	07b53423          	sd	s11,104(a0)
    80002b58:	0005b083          	ld	ra,0(a1)
    80002b5c:	0085b103          	ld	sp,8(a1)
    80002b60:	6980                	ld	s0,16(a1)
    80002b62:	6d84                	ld	s1,24(a1)
    80002b64:	0205b903          	ld	s2,32(a1)
    80002b68:	0285b983          	ld	s3,40(a1)
    80002b6c:	0305ba03          	ld	s4,48(a1)
    80002b70:	0385ba83          	ld	s5,56(a1)
    80002b74:	0405bb03          	ld	s6,64(a1)
    80002b78:	0485bb83          	ld	s7,72(a1)
    80002b7c:	0505bc03          	ld	s8,80(a1)
    80002b80:	0585bc83          	ld	s9,88(a1)
    80002b84:	0605bd03          	ld	s10,96(a1)
    80002b88:	0685bd83          	ld	s11,104(a1)
    80002b8c:	8082                	ret

0000000080002b8e <trapinit>:
void kernelvec();

extern int devintr();

void trapinit(void)
{
    80002b8e:	1141                	add	sp,sp,-16
    80002b90:	e406                	sd	ra,8(sp)
    80002b92:	e022                	sd	s0,0(sp)
    80002b94:	0800                	add	s0,sp,16
  initlock(&tickslock, "time");
    80002b96:	00005597          	auipc	a1,0x5
    80002b9a:	78258593          	add	a1,a1,1922 # 80008318 <states.0+0x30>
    80002b9e:	00035517          	auipc	a0,0x35
    80002ba2:	81a50513          	add	a0,a0,-2022 # 800373b8 <tickslock>
    80002ba6:	ffffe097          	auipc	ra,0xffffe
    80002baa:	202080e7          	jalr	514(ra) # 80000da8 <initlock>
}
    80002bae:	60a2                	ld	ra,8(sp)
    80002bb0:	6402                	ld	s0,0(sp)
    80002bb2:	0141                	add	sp,sp,16
    80002bb4:	8082                	ret

0000000080002bb6 <trapinithart>:

// set up to take exceptions and traps while in the kernel.
void trapinithart(void)
{
    80002bb6:	1141                	add	sp,sp,-16
    80002bb8:	e422                	sd	s0,8(sp)
    80002bba:	0800                	add	s0,sp,16
  asm volatile("csrw stvec, %0" : : "r" (x));
    80002bbc:	00003797          	auipc	a5,0x3
    80002bc0:	61478793          	add	a5,a5,1556 # 800061d0 <kernelvec>
    80002bc4:	10579073          	csrw	stvec,a5
  w_stvec((uint64)kernelvec);
}
    80002bc8:	6422                	ld	s0,8(sp)
    80002bca:	0141                	add	sp,sp,16
    80002bcc:	8082                	ret

0000000080002bce <usertrapret>:

//
// return to user space
//
void usertrapret(void)
{
    80002bce:	1141                	add	sp,sp,-16
    80002bd0:	e406                	sd	ra,8(sp)
    80002bd2:	e022                	sd	s0,0(sp)
    80002bd4:	0800                	add	s0,sp,16
  struct proc *p = myproc();
    80002bd6:	fffff097          	auipc	ra,0xfffff
    80002bda:	02e080e7          	jalr	46(ra) # 80001c04 <myproc>
  asm volatile("csrr %0, sstatus" : "=r" (x) );
    80002bde:	100027f3          	csrr	a5,sstatus
  w_sstatus(r_sstatus() & ~SSTATUS_SIE);
    80002be2:	9bf5                	and	a5,a5,-3
  asm volatile("csrw sstatus, %0" : : "r" (x));
    80002be4:	10079073          	csrw	sstatus,a5
  // kerneltrap() to usertrap(), so turn off interrupts until
  // we're back in user space, where usertrap() is correct.
  intr_off();

  // send syscalls, interrupts, and exceptions to uservec in trampoline.S
  uint64 trampoline_uservec = TRAMPOLINE + (uservec - trampoline);
    80002be8:	00004697          	auipc	a3,0x4
    80002bec:	41868693          	add	a3,a3,1048 # 80007000 <_trampoline>
    80002bf0:	00004717          	auipc	a4,0x4
    80002bf4:	41070713          	add	a4,a4,1040 # 80007000 <_trampoline>
    80002bf8:	8f15                	sub	a4,a4,a3
    80002bfa:	040007b7          	lui	a5,0x4000
    80002bfe:	17fd                	add	a5,a5,-1 # 3ffffff <_entry-0x7c000001>
    80002c00:	07b2                	sll	a5,a5,0xc
    80002c02:	973e                	add	a4,a4,a5
  asm volatile("csrw stvec, %0" : : "r" (x));
    80002c04:	10571073          	csrw	stvec,a4
  w_stvec(trampoline_uservec);

  // set up trapframe values that uservec will need when
  // the process next traps into the kernel.
  p->trapframe->kernel_satp = r_satp();         // kernel page table
    80002c08:	6d38                	ld	a4,88(a0)
  asm volatile("csrr %0, satp" : "=r" (x) );
    80002c0a:	18002673          	csrr	a2,satp
    80002c0e:	e310                	sd	a2,0(a4)
  p->trapframe->kernel_sp = p->kstack + PGSIZE; // process's kernel stack
    80002c10:	6d30                	ld	a2,88(a0)
    80002c12:	6138                	ld	a4,64(a0)
    80002c14:	6585                	lui	a1,0x1
    80002c16:	972e                	add	a4,a4,a1
    80002c18:	e618                	sd	a4,8(a2)
  p->trapframe->kernel_trap = (uint64)usertrap;
    80002c1a:	6d38                	ld	a4,88(a0)
    80002c1c:	00000617          	auipc	a2,0x0
    80002c20:	14260613          	add	a2,a2,322 # 80002d5e <usertrap>
    80002c24:	eb10                	sd	a2,16(a4)
  p->trapframe->kernel_hartid = r_tp(); // hartid for cpuid()
    80002c26:	6d38                	ld	a4,88(a0)
  asm volatile("mv %0, tp" : "=r" (x) );
    80002c28:	8612                	mv	a2,tp
    80002c2a:	f310                	sd	a2,32(a4)
  asm volatile("csrr %0, sstatus" : "=r" (x) );
    80002c2c:	10002773          	csrr	a4,sstatus
  // set up the registers that trampoline.S's sret will use
  // to get to user space.

  // set S Previous Privilege mode to User.
  unsigned long x = r_sstatus();
  x &= ~SSTATUS_SPP; // clear SPP to 0 for user mode
    80002c30:	eff77713          	and	a4,a4,-257
  x |= SSTATUS_SPIE; // enable interrupts in user mode
